ccopy_reg
_reconstructor
p0
(cparrot.Elements
Verbs
p1
c__builtin__
object
p2
Ntp3
Rp4
(dp5
S'list'
p6
(lp7
(iparrot.Element
Verb
p8
(dp9
S'tempo'
p10
S'impf'
p11
sS'string'
p12
S'abbaiava'
p13
sba(iparrot.Element
Verb
p14
(dp15
g10
S'impf'
p16
sg12
S'abbondavano'
p17
sba(iparrot.Element
Verb
p18
(dp19
g10
S'impf'
p20
sg12
S'abitava'
p21
sba(iparrot.Element
Verb
p22
(dp23
g10
S'impf'
p24
sg12
S'abitavamo'
p25
sba(iparrot.Element
Verb
p26
(dp27
g10
S'impf'
p28
sg12
S'abitavano'
p29
sba(iparrot.Element
Verb
p30
(dp31
g10
S'impf'
p32
sg12
S'abitavo'
p33
sba(iparrot.Element
Verb
p34
(dp35
g10
S'impf'
p36
sg12
S'accettava'
p37
sba(iparrot.Element
Verb
p38
(dp39
g10
S'impf'
p40
sg12
S'accingevo'
p41
sba(iparrot.Element
Verb
p42
(dp43
g10
S'impf'
p44
sg12
S'accoglieva'
p45
sba(iparrot.Element
Verb
p46
(dp47
g10
S'impf'
p48
sg12
S'accompagnava'
p49
sba(iparrot.Element
Verb
p50
(dp51
g10
S'impf'
p52
sg12
S'accompagnavano'
p53
sba(iparrot.Element
Verb
p54
(dp55
g10
S'impf'
p56
sg12
S'accontentavo'
p57
sba(iparrot.Element
Verb
p58
(dp59
g10
S'impf'
p60
sg12
S'accumulava'
p61
sba(iparrot.Element
Verb
p62
(dp63
g10
S'impf'
p64
sg12
S'adoravano'
p65
sba(iparrot.Element
Verb
p66
(dp67
g10
S'impf'
p68
sg12
S'adoravo'
p69
sba(iparrot.Element
Verb
p70
(dp71
g10
S'impf'
p72
sg12
S'affondava'
p73
sba(iparrot.Element
Verb
p74
(dp75
g10
S'impf'
p76
sg12
S'agitava'
p77
sba(iparrot.Element
Verb
p78
(dp79
g10
S'impf'
p80
sg12
S'aiutava'
p81
sba(iparrot.Element
Verb
p82
(dp83
g10
S'impf'
p84
sg12
S'aiutavano'
p85
sba(iparrot.Element
Verb
p86
(dp87
g10
S'impf'
p88
sg12
S'alloggiavamo'
p89
sba(iparrot.Element
Verb
p90
(dp91
g10
S'impf'
p92
sg12
S'alludevi'
p93
sba(iparrot.Element
Verb
p94
(dp95
g10
S'impf'
p96
sg12
S'alludevo'
p97
sba(iparrot.Element
Verb
p98
(dp99
g10
S'impf'
p100
sg12
S'alzava'
p101
sba(iparrot.Element
Verb
p102
(dp103
g10
S'impf'
p104
sg12
S'alzavo'
p105
sba(iparrot.Element
Verb
p106
(dp107
g10
S'impf'
p108
sg12
S'amava'
p109
sba(iparrot.Element
Verb
p110
(dp111
g10
S'impf'
p112
sg12
S'amavamo'
p113
sba(iparrot.Element
Verb
p114
(dp115
g10
S'impf'
p116
sg12
S'amavano'
p117
sba(iparrot.Element
Verb
p118
(dp119
g10
S'impf'
p120
sg12
S'amavate'
p121
sba(iparrot.Element
Verb
p122
(dp123
g10
S'impf'
p124
sg12
S'amavo'
p125
sba(iparrot.Element
Verb
p126
(dp127
g10
S'impf'
p128
sg12
S'ammazzava'
p129
sba(iparrot.Element
Verb
p130
(dp131
g10
S'impf'
p132
sg12
S'ammazzavamo'
p133
sba(iparrot.Element
Verb
p134
(dp135
g10
S'impf'
p136
sg12
S'amministravano'
p137
sba(iparrot.Element
Verb
p138
(dp139
g10
S'impf'
p140
sg12
S'ammirava'
p141
sba(iparrot.Element
Verb
p142
(dp143
g10
S'impf'
p144
sg12
S'ammiravamo'
p145
sba(iparrot.Element
Verb
p146
(dp147
g10
S'impf'
p148
sg12
S'ammiravano'
p149
sba(iparrot.Element
Verb
p150
(dp151
g10
S'impf'
p152
sg12
S'ammonivano'
p153
sba(iparrot.Element
Verb
p154
(dp155
g10
S'impf'
p156
sg12
S'ammontava'
p157
sba(iparrot.Element
Verb
p158
(dp159
g10
S'impf'
p160
sg12
S'ammucchiavamo'
p161
sba(iparrot.Element
Verb
p162
(dp163
g10
S'impf'
p164
sg12
S'andava'
p165
sba(iparrot.Element
Verb
p166
(dp167
g10
S'impf'
p168
sg12
S'andavamo'
p169
sba(iparrot.Element
Verb
p170
(dp171
g10
S'impf'
p172
sg12
S'andavano'
p173
sba(iparrot.Element
Verb
p174
(dp175
g10
S'impf'
p176
sg12
S'andavi'
p177
sba(iparrot.Element
Verb
p178
(dp179
g10
S'impf'
p180
sg12
S'andavo'
p181
sba(iparrot.Element
Verb
p182
(dp183
g10
S'impf'
p184
sg12
S'annaffiava'
p185
sba(iparrot.Element
Verb
p186
(dp187
g10
S'impf'
p188
sg12
S'annuiva'
p189
sba(iparrot.Element
Verb
p190
(dp191
g10
S'impf'
p192
sg12
S'annunciava'
p193
sba(iparrot.Element
Verb
p194
(dp195
g10
S'impf'
p196
sg12
S'appariva'
p197
sba(iparrot.Element
Verb
p198
(dp199
g10
S'impf'
p200
sg12
S'apparteneva'
p201
sba(iparrot.Element
Verb
p202
(dp203
g10
S'impf'
p204
sg12
S'appartenevano'
p205
sba(iparrot.Element
Verb
p206
(dp207
g10
S'impf'
p208
sg12
S'applicava'
p209
sba(iparrot.Element
Verb
p210
(dp211
g10
S'impf'
p212
sg12
S'appoggiava'
p213
sba(iparrot.Element
Verb
p214
(dp215
g10
S'impf'
p216
sg12
S'appoggiavano'
p217
sba(iparrot.Element
Verb
p218
(dp219
g10
S'impf'
p220
sg12
S'apprezzava'
p221
sba(iparrot.Element
Verb
p222
(dp223
g10
S'impf'
p224
sg12
S'apprezzavo'
p225
sba(iparrot.Element
Verb
p226
(dp227
g10
S'impf'
p228
sg12
S'apriva'
p229
sba(iparrot.Element
Verb
p230
(dp231
g10
S'impf'
p232
sg12
S'ardeva'
p233
sba(iparrot.Element
Verb
p234
(dp235
g10
S'impf'
p236
sg12
S'arrivava'
p237
sba(iparrot.Element
Verb
p238
(dp239
g10
S'impf'
p240
sg12
S'arrivavamo'
p241
sba(iparrot.Element
Verb
p242
(dp243
g10
S'impf'
p244
sg12
S'arrivavano'
p245
sba(iparrot.Element
Verb
p246
(dp247
g10
S'impf'
p248
sg12
S'arrossava'
p249
sba(iparrot.Element
Verb
p250
(dp251
g10
S'impf'
p252
sg12
S'articolava'
p253
sba(iparrot.Element
Verb
p254
(dp255
g10
S'impf'
p256
sg12
S'ascoltava'
p257
sba(iparrot.Element
Verb
p258
(dp259
g10
S'impf'
p260
sg12
S'ascoltavano'
p261
sba(iparrot.Element
Verb
p262
(dp263
g10
S'impf'
p264
sg12
S'ascoltavo'
p265
sba(iparrot.Element
Verb
p266
(dp267
g10
S'impf'
p268
sg12
S'aspettava'
p269
sba(iparrot.Element
Verb
p270
(dp271
g10
S'impf'
p272
sg12
S'aspettavamo'
p273
sba(iparrot.Element
Verb
p274
(dp275
g10
S'impf'
p276
sg12
S'aspettavano'
p277
sba(iparrot.Element
Verb
p278
(dp279
g10
S'impf'
p280
sg12
S'aspettavate'
p281
sba(iparrot.Element
Verb
p282
(dp283
g10
S'impf'
p284
sg12
S'aspettavi'
p285
sba(iparrot.Element
Verb
p286
(dp287
g10
S'impf'
p288
sg12
S'aspettavo'
p289
sba(iparrot.Element
Verb
p290
(dp291
g10
S'impf'
p292
sg12
S'asseriva'
p293
sba(iparrot.Element
Verb
p294
(dp295
g10
S'impf'
p296
sg12
S'assomigliava'
p297
sba(iparrot.Element
Verb
p298
(dp299
g10
S'impf'
p300
sg12
S'attendeva'
p301
sba(iparrot.Element
Verb
p302
(dp303
g10
S'impf'
p304
sg12
S'attendevamo'
p305
sba(iparrot.Element
Verb
p306
(dp307
g10
S'impf'
p308
sg12
S'attendevano'
p309
sba(iparrot.Element
Verb
p310
(dp311
g10
S'impf'
p312
sg12
S'attraversava'
p313
sba(iparrot.Element
Verb
p314
(dp315
g10
S'impf'
p316
sg12
S'avanzava'
p317
sba(iparrot.Element
Verb
p318
(dp319
g10
S'impf'
p320
sg12
S'avanzavano'
p321
sba(iparrot.Element
Verb
p322
(dp323
g10
S'impf'
p324
sg12
S'aveva'
p325
sba(iparrot.Element
Verb
p326
(dp327
g10
S'impf'
p328
sg12
S'avevamo'
p329
sba(iparrot.Element
Verb
p330
(dp331
g10
S'impf'
p332
sg12
S'avevano'
p333
sba(iparrot.Element
Verb
p334
(dp335
g10
S'impf'
p336
sg12
S'avevate'
p337
sba(iparrot.Element
Verb
p338
(dp339
g10
S'impf'
p340
sg12
S'avevi'
p341
sba(iparrot.Element
Verb
p342
(dp343
g10
S'impf'
p344
sg12
S'avevo'
p345
sba(iparrot.Element
Verb
p346
(dp347
g10
S'impf'
p348
sg12
S'avveniva'
p349
sba(iparrot.Element
Verb
p350
(dp351
g10
S'impf'
p352
sg12
S'avvicinava'
p353
sba(iparrot.Element
Verb
p354
(dp355
g10
S'impf'
p356
sg12
S'baciava'
p357
sba(iparrot.Element
Verb
p358
(dp359
g10
S'impf'
p360
sg12
S'bagnavo'
p361
sba(iparrot.Element
Verb
p362
(dp363
g10
S'impf'
p364
sg12
S'ballava'
p365
sba(iparrot.Element
Verb
p366
(dp367
g10
S'impf'
p368
sg12
S'ballavano'
p369
sba(iparrot.Element
Verb
p370
(dp371
g10
S'impf'
p372
sg12
S'barava'
p373
sba(iparrot.Element
Verb
p374
(dp375
g10
S'impf'
p376
sg12
S'bastava'
p377
sba(iparrot.Element
Verb
p378
(dp379
g10
S'impf'
p380
sg12
S'batteva'
p381
sba(iparrot.Element
Verb
p382
(dp383
g10
S'impf'
p384
sg12
S'beveva'
p385
sba(iparrot.Element
Verb
p386
(dp387
g10
S'impf'
p388
sg12
S'bevevi'
p389
sba(iparrot.Element
Verb
p390
(dp391
g10
S'impf'
p392
sg12
S'bevevo'
p393
sba(iparrot.Element
Verb
p394
(dp395
g10
S'impf'
p396
sg12
S'bisognava'
p397
sba(iparrot.Element
Verb
p398
(dp399
g10
S'impf'
p400
sg12
S'bloccava'
p401
sba(iparrot.Element
Verb
p402
(dp403
g10
S'impf'
p404
sg12
S'bolliva'
p405
sba(iparrot.Element
Verb
p406
(dp407
g10
S'impf'
p408
sg12
S'brillava'
p409
sba(iparrot.Element
Verb
p410
(dp411
g10
S'impf'
p412
sg12
S'brillavano'
p413
sba(iparrot.Element
Verb
p414
(dp415
g10
S'impf'
p416
sg12
S'brontolava'
p417
sba(iparrot.Element
Verb
p418
(dp419
g10
S'impf'
p420
sg12
S'cacciava'
p421
sba(iparrot.Element
Verb
p422
(dp423
g10
S'impf'
p424
sg12
S'cacciavo'
p425
sba(iparrot.Element
Verb
p426
(dp427
g10
S'impf'
p428
sg12
S'calcolava'
p429
sba(iparrot.Element
Verb
p430
(dp431
g10
S'impf'
p432
sg12
S'calcolavano'
p433
sba(iparrot.Element
Verb
p434
(dp435
g10
S'impf'
p436
sg12
S'calcolavate'
p437
sba(iparrot.Element
Verb
p438
(dp439
g10
S'impf'
p440
sg12
S'calcolavo'
p441
sba(iparrot.Element
Verb
p442
(dp443
g10
S'impf'
p444
sg12
S'cambiava'
p445
sba(iparrot.Element
Verb
p446
(dp447
g10
S'impf'
p448
sg12
S'camminava'
p449
sba(iparrot.Element
Verb
p450
(dp451
g10
S'impf'
p452
sg12
S'camminavano'
p453
sba(iparrot.Element
Verb
p454
(dp455
g10
S'impf'
p456
sg12
S'camminavo'
p457
sba(iparrot.Element
Verb
p458
(dp459
g10
S'impf'
p460
sg12
S'cantava'
p461
sba(iparrot.Element
Verb
p462
(dp463
g10
S'impf'
p464
sg12
S'cantavano'
p465
sba(iparrot.Element
Verb
p466
(dp467
g10
S'impf'
p468
sg12
S'cantavo'
p469
sba(iparrot.Element
Verb
p470
(dp471
g10
S'impf'
p472
sg12
S'capitava'
p473
sba(iparrot.Element
Verb
p474
(dp475
g10
S'impf'
p476
sg12
S'capiva'
p477
sba(iparrot.Element
Verb
p478
(dp479
g10
S'impf'
p480
sg12
S'capivo'
p481
sba(iparrot.Element
Verb
p482
(dp483
g10
S'impf'
p484
sg12
S'celebravano'
p485
sba(iparrot.Element
Verb
p486
(dp487
g10
S'impf'
p488
sg12
S'cenavo'
p489
sba(iparrot.Element
Verb
p490
(dp491
g10
S'impf'
p492
sg12
S'cercava'
p493
sba(iparrot.Element
Verb
p494
(dp495
g10
S'impf'
p496
sg12
S'cercavano'
p497
sba(iparrot.Element
Verb
p498
(dp499
g10
S'impf'
p500
sg12
S'cercavi'
p501
sba(iparrot.Element
Verb
p502
(dp503
g10
S'impf'
p504
sg12
S'cercavo'
p505
sba(iparrot.Element
Verb
p506
(dp507
g10
S'impf'
p508
sg12
S'cessava'
p509
sba(iparrot.Element
Verb
p510
(dp511
g10
S'impf'
p512
sg12
S'chiamava'
p513
sba(iparrot.Element
Verb
p514
(dp515
g10
S'impf'
p516
sg12
S'chiamavano'
p517
sba(iparrot.Element
Verb
p518
(dp519
g10
S'impf'
p520
sg12
S'chiamavo'
p521
sba(iparrot.Element
Verb
p522
(dp523
g10
S'impf'
p524
sg12
S'chiedeva'
p525
sba(iparrot.Element
Verb
p526
(dp527
g10
S'impf'
p528
sg12
S'chiedevano'
p529
sba(iparrot.Element
Verb
p530
(dp531
g10
S'impf'
p532
sg12
S'chiedevo'
p533
sba(iparrot.Element
Verb
p534
(dp535
g10
S'impf'
p536
sg12
S'chiudeva'
p537
sba(iparrot.Element
Verb
p538
(dp539
g10
S'impf'
p540
sg12
S'cigolava'
p541
sba(iparrot.Element
Verb
p542
(dp543
g10
S'impf'
p544
sg12
S'cingeva'
p545
sba(iparrot.Element
Verb
p546
(dp547
g10
S'impf'
p548
sg12
S'circolava'
p549
sba(iparrot.Element
Verb
p550
(dp551
g10
S'impf'
p552
sg12
S'circolavano'
p553
sba(iparrot.Element
Verb
p554
(dp555
g10
S'impf'
p556
sg12
S'circondava'
p557
sba(iparrot.Element
Verb
p558
(dp559
g10
S'impf'
p560
sg12
S'collezionava'
p561
sba(iparrot.Element
Verb
p562
(dp563
g10
S'impf'
p564
sg12
S'collezionavano'
p565
sba(iparrot.Element
Verb
p566
(dp567
g10
S'impf'
p568
sg12
S'colpiva'
p569
sba(iparrot.Element
Verb
p570
(dp571
g10
S'impf'
p572
sg12
S'coltivava'
p573
sba(iparrot.Element
Verb
p574
(dp575
g10
S'impf'
p576
sg12
S'cominciava'
p577
sba(iparrot.Element
Verb
p578
(dp579
g10
S'impf'
p580
sg12
S'commentavo'
p581
sba(iparrot.Element
Verb
p582
(dp583
g10
S'impf'
p584
sg12
S'compativa'
p585
sba(iparrot.Element
Verb
p586
(dp587
g10
S'impf'
p588
sg12
S'compiva'
p589
sba(iparrot.Element
Verb
p590
(dp591
g10
S'impf'
p592
sg12
S'comportava'
p593
sba(iparrot.Element
Verb
p594
(dp595
g10
S'impf'
p596
sg12
S'compravano'
p597
sba(iparrot.Element
Verb
p598
(dp599
g10
S'impf'
p600
sg12
S'comprendeva'
p601
sba(iparrot.Element
Verb
p602
(dp603
g10
S'impf'
p604
sg12
S'comunicavamo'
p605
sba(iparrot.Element
Verb
p606
(dp607
g10
S'impf'
p608
sg12
S'conciava'
p609
sba(iparrot.Element
Verb
p610
(dp611
g10
S'impf'
p612
sg12
S'condividevamo'
p613
sba(iparrot.Element
Verb
p614
(dp615
g10
S'impf'
p616
sg12
S'confidava'
p617
sba(iparrot.Element
Verb
p618
(dp619
g10
S'impf'
p620
sg12
S'confidavo'
p621
sba(iparrot.Element
Verb
p622
(dp623
g10
S'impf'
p624
sg12
S'confrontava'
p625
sba(iparrot.Element
Verb
p626
(dp627
g10
S'impf'
p628
sg12
S'conosceva'
p629
sba(iparrot.Element
Verb
p630
(dp631
g10
S'impf'
p632
sg12
S'conoscevamo'
p633
sba(iparrot.Element
Verb
p634
(dp635
g10
S'impf'
p636
sg12
S'conoscevano'
p637
sba(iparrot.Element
Verb
p638
(dp639
g10
S'impf'
p640
sg12
S'conoscevate'
p641
sba(iparrot.Element
Verb
p642
(dp643
g10
S'impf'
p644
sg12
S'conoscevi'
p645
sba(iparrot.Element
Verb
p646
(dp647
g10
S'impf'
p648
sg12
S'conoscevo'
p649
sba(iparrot.Element
Verb
p650
(dp651
g10
S'impf'
p652
sg12
S'consentivano'
p653
sba(iparrot.Element
Verb
p654
(dp655
g10
S'impf'
p656
sg12
S'conservava'
p657
sba(iparrot.Element
Verb
p658
(dp659
g10
S'impf'
p660
sg12
S'considerava'
p661
sba(iparrot.Element
Verb
p662
(dp663
g10
S'impf'
p664
sg12
S'consideravamo'
p665
sba(iparrot.Element
Verb
p666
(dp667
g10
S'impf'
p668
sg12
S'consideravano'
p669
sba(iparrot.Element
Verb
p670
(dp671
g10
S'impf'
p672
sg12
S'consideravo'
p673
sba(iparrot.Element
Verb
p674
(dp675
g10
S'impf'
p676
sg12
S'consisteva'
p677
sba(iparrot.Element
Verb
p678
(dp679
g10
S'impf'
p680
sg12
S'consolava'
p681
sba(iparrot.Element
Verb
p682
(dp683
g10
S'impf'
p684
sg12
S'contava'
p685
sba(iparrot.Element
Verb
p686
(dp687
g10
S'impf'
p688
sg12
S'contavo'
p689
sba(iparrot.Element
Verb
p690
(dp691
g10
S'impf'
p692
sg12
S'contendevano'
p693
sba(iparrot.Element
Verb
p694
(dp695
g10
S'impf'
p696
sg12
S'conteneva'
p697
sba(iparrot.Element
Verb
p698
(dp699
g10
S'impf'
p700
sg12
S'continuava'
p701
sba(iparrot.Element
Verb
p702
(dp703
g10
S'impf'
p704
sg12
S'continuavano'
p705
sba(iparrot.Element
Verb
p706
(dp707
g10
S'impf'
p708
sg12
S'continuavo'
p709
sba(iparrot.Element
Verb
p710
(dp711
g10
S'impf'
p712
sg12
S'contorcevano'
p713
sba(iparrot.Element
Verb
p714
(dp715
g10
S'impf'
p716
sg12
S'contribuivo'
p717
sba(iparrot.Element
Verb
p718
(dp719
g10
S'impf'
p720
sg12
S'controllava'
p721
sba(iparrot.Element
Verb
p722
(dp723
g10
S'impf'
p724
sg12
S'controllavano'
p725
sba(iparrot.Element
Verb
p726
(dp727
g10
S'impf'
p728
sg12
S'copriva'
p729
sba(iparrot.Element
Verb
p730
(dp731
g10
S'impf'
p732
sg12
S'correva'
p733
sba(iparrot.Element
Verb
p734
(dp735
g10
S'impf'
p736
sg12
S'correvano'
p737
sba(iparrot.Element
Verb
p738
(dp739
g10
S'impf'
p740
sg12
S'correvo'
p741
sba(iparrot.Element
Verb
p742
(dp743
g10
S'impf'
p744
sg12
S'costava'
p745
sba(iparrot.Element
Verb
p746
(dp747
g10
S'impf'
p748
sg12
S'costituiva'
p749
sba(iparrot.Element
Verb
p750
(dp751
g10
S'impf'
p752
sg12
S'credeva'
p753
sba(iparrot.Element
Verb
p754
(dp755
g10
S'impf'
p756
sg12
S'credevamo'
p757
sba(iparrot.Element
Verb
p758
(dp759
g10
S'impf'
p760
sg12
S'credevano'
p761
sba(iparrot.Element
Verb
p762
(dp763
g10
S'impf'
p764
sg12
S'credevate'
p765
sba(iparrot.Element
Verb
p766
(dp767
g10
S'impf'
p768
sg12
S'credevi'
p769
sba(iparrot.Element
Verb
p770
(dp771
g10
S'impf'
p772
sg12
S'credevo'
p773
sba(iparrot.Element
Verb
p774
(dp775
g10
S'impf'
p776
sg12
S'cresceva'
p777
sba(iparrot.Element
Verb
p778
(dp779
g10
S'impf'
p780
sg12
S'crogiolava'
p781
sba(iparrot.Element
Verb
p782
(dp783
g10
S'impf'
p784
sg12
S'cucinava'
p785
sba(iparrot.Element
Verb
p786
(dp787
g10
S'impf'
p788
sg12
S'cuciva'
p789
sba(iparrot.Element
Verb
p790
(dp791
g10
S'impf'
p792
sg12
S'danzava'
p793
sba(iparrot.Element
Verb
p794
(dp795
g10
S'impf'
p796
sg12
S'danzavano'
p797
sba(iparrot.Element
Verb
p798
(dp799
g10
S'impf'
p800
sg12
S'dava'
p801
sba(iparrot.Element
Verb
p802
(dp803
g10
S'impf'
p804
sg12
S'davamo'
p805
sba(iparrot.Element
Verb
p806
(dp807
g10
S'impf'
p808
sg12
S'davano'
p809
sba(iparrot.Element
Verb
p810
(dp811
g10
S'impf'
p812
sg12
S'davo'
p813
sba(iparrot.Element
Verb
p814
(dp815
g10
S'impf'
p816
sg12
S'descriveva'
p817
sba(iparrot.Element
Verb
p818
(dp819
g10
S'impf'
p820
sg12
S'desiderava'
p821
sba(iparrot.Element
Verb
p822
(dp823
g10
S'impf'
p824
sg12
S'desideravo'
p825
sba(iparrot.Element
Verb
p826
(dp827
g10
S'impf'
p828
sg12
S'detenevano'
p829
sba(iparrot.Element
Verb
p830
(dp831
g10
S'impf'
p832
sg12
S'detestava'
p833
sba(iparrot.Element
Verb
p834
(dp835
g10
S'impf'
p836
sg12
S'dialogavano'
p837
sba(iparrot.Element
Verb
p838
(dp839
g10
S'impf'
p840
sg12
S'diceva'
p841
sba(iparrot.Element
Verb
p842
(dp843
g10
S'impf'
p844
sg12
S'dicevano'
p845
sba(iparrot.Element
Verb
p846
(dp847
g10
S'impf'
p848
sg12
S'dicevi'
p849
sba(iparrot.Element
Verb
p850
(dp851
g10
S'impf'
p852
sg12
S'dicevo'
p853
sba(iparrot.Element
Verb
p854
(dp855
g10
S'impf'
p856
sg12
S'difendeva'
p857
sba(iparrot.Element
Verb
p858
(dp859
g10
S'impf'
p860
sg12
S'difendevamo'
p861
sba(iparrot.Element
Verb
p862
(dp863
g10
S'impf'
p864
sg12
S'difendevano'
p865
sba(iparrot.Element
Verb
p866
(dp867
g10
S'impf'
p868
sg12
S'difendevi'
p869
sba(iparrot.Element
Verb
p870
(dp871
g10
S'impf'
p872
sg12
S'difendevo'
p873
sba(iparrot.Element
Verb
p874
(dp875
g10
S'impf'
p876
sg12
S'dimenava'
p877
sba(iparrot.Element
Verb
p878
(dp879
g10
S'impf'
p880
sg12
S'dimenticavo'
p881
sba(iparrot.Element
Verb
p882
(dp883
g10
S'impf'
p884
sg12
S'dimostravano'
p885
sba(iparrot.Element
Verb
p886
(dp887
g10
S'impf'
p888
sg12
S'dipendeva'
p889
sba(iparrot.Element
Verb
p890
(dp891
g10
S'impf'
p892
sg12
S'dirigeva'
p893
sba(iparrot.Element
Verb
p894
(dp895
g10
S'impf'
p896
sg12
S'discendeva'
p897
sba(iparrot.Element
Verb
p898
(dp899
g10
S'impf'
p900
sg12
S'discuteva'
p901
sba(iparrot.Element
Verb
p902
(dp903
g10
S'impf'
p904
sg12
S'discutevamo'
p905
sba(iparrot.Element
Verb
p906
(dp907
g10
S'impf'
p908
sg12
S'discutevano'
p909
sba(iparrot.Element
Verb
p910
(dp911
g10
S'impf'
p912
sg12
S'disperavano'
p913
sba(iparrot.Element
Verb
p914
(dp915
g10
S'impf'
p916
sg12
S'dispiaceva'
p917
sba(iparrot.Element
Verb
p918
(dp919
g10
S'impf'
p920
sg12
S'disprezzava'
p921
sba(iparrot.Element
Verb
p922
(dp923
g10
S'impf'
p924
sg12
S'disprezzavano'
p925
sba(iparrot.Element
Verb
p926
(dp927
g10
S'impf'
p928
sg12
S'distingueva'
p929
sba(iparrot.Element
Verb
p930
(dp931
g10
S'impf'
p932
sg12
S'distribuiva'
p933
sba(iparrot.Element
Verb
p934
(dp935
g10
S'impf'
p936
sg12
S'distribuivano'
p937
sba(iparrot.Element
Verb
p938
(dp939
g10
S'impf'
p940
sg12
S'distribuivo'
p941
sba(iparrot.Element
Verb
p942
(dp943
g10
S'impf'
p944
sg12
S'disturbava'
p945
sba(iparrot.Element
Verb
p946
(dp947
g10
S'impf'
p948
sg12
S'diventava'
p949
sba(iparrot.Element
Verb
p950
(dp951
g10
S'impf'
p952
sg12
S'diventavano'
p953
sba(iparrot.Element
Verb
p954
(dp955
g10
S'impf'
p956
sg12
S'diventavo'
p957
sba(iparrot.Element
Verb
p958
(dp959
g10
S'impf'
p960
sg12
S'divertiva'
p961
sba(iparrot.Element
Verb
p962
(dp963
g10
S'impf'
p964
sg12
S'divertivano'
p965
sba(iparrot.Element
Verb
p966
(dp967
g10
S'impf'
p968
sg12
S'divertivo'
p969
sba(iparrot.Element
Verb
p970
(dp971
g10
S'impf'
p972
sg12
S'dividevano'
p973
sba(iparrot.Element
Verb
p974
(dp975
g10
S'impf'
p976
sg12
S'dividevi'
p977
sba(iparrot.Element
Verb
p978
(dp979
g10
S'impf'
p980
sg12
S'domandavo'
p981
sba(iparrot.Element
Verb
p982
(dp983
g10
S'impf'
p984
sg12
S'dominava'
p985
sba(iparrot.Element
Verb
p986
(dp987
g10
S'impf'
p988
sg12
S'dominavano'
p989
sba(iparrot.Element
Verb
p990
(dp991
g10
S'impf'
p992
sg12
S'donava'
p993
sba(iparrot.Element
Verb
p994
(dp995
g10
S'impf'
p996
sg12
S'dormiva'
p997
sba(iparrot.Element
Verb
p998
(dp999
g10
S'impf'
p1000
sg12
S'dormivamo'
p1001
sba(iparrot.Element
Verb
p1002
(dp1003
g10
S'impf'
p1004
sg12
S'dormivano'
p1005
sba(iparrot.Element
Verb
p1006
(dp1007
g10
S'impf'
p1008
sg12
S'dormivo'
p1009
sba(iparrot.Element
Verb
p1010
(dp1011
g10
S'impf'
p1012
sg12
S'doveva'
p1013
sba(iparrot.Element
Verb
p1014
(dp1015
g10
S'impf'
p1016
sg12
S'dovevamo'
p1017
sba(iparrot.Element
Verb
p1018
(dp1019
g10
S'impf'
p1020
sg12
S'dovevano'
p1021
sba(iparrot.Element
Verb
p1022
(dp1023
g10
S'impf'
p1024
sg12
S'dovevate'
p1025
sba(iparrot.Element
Verb
p1026
(dp1027
g10
S'impf'
p1028
sg12
S'dovevi'
p1029
sba(iparrot.Element
Verb
p1030
(dp1031
g10
S'impf'
p1032
sg12
S'dovevo'
p1033
sba(iparrot.Element
Verb
p1034
(dp1035
g10
S'impf'
p1036
sg12
S'dubitava'
p1037
sba(iparrot.Element
Verb
p1038
(dp1039
g10
S'impf'
p1040
sg12
S'dubitavo'
p1041
sba(iparrot.Element
Verb
p1042
(dp1043
g10
S'impf'
p1044
sg12
S'durava'
p1045
sba(iparrot.Element
Verb
p1046
(dp1047
g10
S'impf'
p1048
sg12
S'eccitava'
p1049
sba(iparrot.Element
Verb
p1050
(dp1051
g10
S'impf'
p1052
sg12
S'emanava'
p1053
sba(iparrot.Element
Verb
p1054
(dp1055
g10
S'impf'
p1056
sg12
S'entrava'
p1057
sba(iparrot.Element
Verb
p1058
(dp1059
g10
S'impf'
p1060
sg12
S'entravano'
p1061
sba(iparrot.Element
Verb
p1062
(dp1063
g10
S'impf'
p1064
sg12
S'era'
p1065
sba(iparrot.Element
Verb
p1066
(dp1067
g10
S'impf'
p1068
sg12
S'erano'
p1069
sba(iparrot.Element
Verb
p1070
(dp1071
g10
S'impf'
p1072
sg12
S'eravamo'
p1073
sba(iparrot.Element
Verb
p1074
(dp1075
g10
S'impf'
p1076
sg12
S'eravate'
p1077
sba(iparrot.Element
Verb
p1078
(dp1079
g10
S'impf'
p1080
sg12
S'eri'
p1081
sba(iparrot.Element
Verb
p1082
(dp1083
g10
S'impf'
p1084
sg12
S'ero'
p1085
sba(iparrot.Element
Verb
p1086
(dp1087
g10
S'impf'
p1088
sg12
S'errava'
p1089
sba(iparrot.Element
Verb
p1090
(dp1091
g10
S'impf'
p1092
sg12
S'esercitava'
p1093
sba(iparrot.Element
Verb
p1094
(dp1095
g10
S'impf'
p1096
sg12
S'esigeva'
p1097
sba(iparrot.Element
Verb
p1098
(dp1099
g10
S'impf'
p1100
sg12
S'esigevano'
p1101
sba(iparrot.Element
Verb
p1102
(dp1103
g10
S'impf'
p1104
sg12
S'esisteva'
p1105
sba(iparrot.Element
Verb
p1106
(dp1107
g10
S'impf'
p1108
sg12
S'esistevano'
p1109
sba(iparrot.Element
Verb
p1110
(dp1111
g10
S'impf'
p1112
sg12
S'esitava'
p1113
sba(iparrot.Element
Verb
p1114
(dp1115
g10
S'impf'
p1116
sg12
S'esportava'
p1117
sba(iparrot.Element
Verb
p1118
(dp1119
g10
S'impf'
p1120
sg12
S'esprimeva'
p1121
sba(iparrot.Element
Verb
p1122
(dp1123
g10
S'impf'
p1124
sg12
S'estendeva'
p1125
sba(iparrot.Element
Verb
p1126
(dp1127
g10
S'impf'
p1128
sg12
S'esultavano'
p1129
sba(iparrot.Element
Verb
p1130
(dp1131
g10
S'impf'
p1132
sg12
S'faceva'
p1133
sba(iparrot.Element
Verb
p1134
(dp1135
g10
S'impf'
p1136
sg12
S'facevamo'
p1137
sba(iparrot.Element
Verb
p1138
(dp1139
g10
S'impf'
p1140
sg12
S'facevano'
p1141
sba(iparrot.Element
Verb
p1142
(dp1143
g10
S'impf'
p1144
sg12
S'facevate'
p1145
sba(iparrot.Element
Verb
p1146
(dp1147
g10
S'impf'
p1148
sg12
S'facevi'
p1149
sba(iparrot.Element
Verb
p1150
(dp1151
g10
S'impf'
p1152
sg12
S'facevo'
p1153
sba(iparrot.Element
Verb
p1154
(dp1155
g10
S'impf'
p1156
sg12
S'favoriva'
p1157
sba(iparrot.Element
Verb
p1158
(dp1159
g10
S'impf'
p1160
sg12
S'fermava'
p1161
sba(iparrot.Element
Verb
p1162
(dp1163
g10
S'impf'
p1164
sg12
S'fermentava'
p1165
sba(iparrot.Element
Verb
p1166
(dp1167
g10
S'impf'
p1168
sg12
S'fidava'
p1169
sba(iparrot.Element
Verb
p1170
(dp1171
g10
S'impf'
p1172
sg12
S'fidavamo'
p1173
sba(iparrot.Element
Verb
p1174
(dp1175
g10
S'impf'
p1176
sg12
S'fidavo'
p1177
sba(iparrot.Element
Verb
p1178
(dp1179
g10
S'impf'
p1180
sg12
S'fingeva'
p1181
sba(iparrot.Element
Verb
p1182
(dp1183
g10
S'impf'
p1184
sg12
S'fingevano'
p1185
sba(iparrot.Element
Verb
p1186
(dp1187
g10
S'impf'
p1188
sg12
S'finiva'
p1189
sba(iparrot.Element
Verb
p1190
(dp1191
g10
S'impf'
p1192
sg12
S'firmava'
p1193
sba(iparrot.Element
Verb
p1194
(dp1195
g10
S'impf'
p1196
sg12
S'fischiava'
p1197
sba(iparrot.Element
Verb
p1198
(dp1199
g10
S'impf'
p1200
sg12
S'fischiavate'
p1201
sba(iparrot.Element
Verb
p1202
(dp1203
g10
S'impf'
p1204
sg12
S'fissava'
p1205
sba(iparrot.Element
Verb
p1206
(dp1207
g10
S'impf'
p1208
sg12
S'fissavano'
p1209
sba(iparrot.Element
Verb
p1210
(dp1211
g10
S'impf'
p1212
sg12
S'fissavo'
p1213
sba(iparrot.Element
Verb
p1214
(dp1215
g10
S'impf'
p1216
sg12
S'flirtava'
p1217
sba(iparrot.Element
Verb
p1218
(dp1219
g10
S'impf'
p1220
sg12
S'formavano'
p1221
sba(iparrot.Element
Verb
p1222
(dp1223
g10
S'impf'
p1224
sg12
S'formulava'
p1225
sba(iparrot.Element
Verb
p1226
(dp1227
g10
S'impf'
p1228
sg12
S'forniva'
p1229
sba(iparrot.Element
Verb
p1230
(dp1231
g10
S'impf'
p1232
sg12
S'fornivamo'
p1233
sba(iparrot.Element
Verb
p1234
(dp1235
g10
S'impf'
p1236
sg12
S'fornivano'
p1237
sba(iparrot.Element
Verb
p1238
(dp1239
g10
S'impf'
p1240
sg12
S'fotografava'
p1241
sba(iparrot.Element
Verb
p1242
(dp1243
g10
S'impf'
p1244
sg12
S'frequentava'
p1245
sba(iparrot.Element
Verb
p1246
(dp1247
g10
S'impf'
p1248
sg12
S'frequentavo'
p1249
sba(iparrot.Element
Verb
p1250
(dp1251
g10
S'impf'
p1252
sg12
S'fuggiva'
p1253
sba(iparrot.Element
Verb
p1254
(dp1255
g10
S'impf'
p1256
sg12
S'fumava'
p1257
sba(iparrot.Element
Verb
p1258
(dp1259
g10
S'impf'
p1260
sg12
S'fumavi'
p1261
sba(iparrot.Element
Verb
p1262
(dp1263
g10
S'impf'
p1264
sg12
S'fumavo'
p1265
sba(iparrot.Element
Verb
p1266
(dp1267
g10
S'impf'
p1268
sg12
S'funzionava'
p1269
sba(iparrot.Element
Verb
p1270
(dp1271
g10
S'impf'
p1272
sg12
S'galleggiava'
p1273
sba(iparrot.Element
Verb
p1274
(dp1275
g10
S'impf'
p1276
sg12
S'galleggiavano'
p1277
sba(iparrot.Element
Verb
p1278
(dp1279
g10
S'impf'
p1280
sg12
S'garrivano'
p1281
sba(iparrot.Element
Verb
p1282
(dp1283
g10
S'impf'
p1284
sg12
S'giaceva'
p1285
sba(iparrot.Element
Verb
p1286
(dp1287
g10
S'impf'
p1288
sg12
S'giocava'
p1289
sba(iparrot.Element
Verb
p1290
(dp1291
g10
S'impf'
p1292
sg12
S'giocavamo'
p1293
sba(iparrot.Element
Verb
p1294
(dp1295
g10
S'impf'
p1296
sg12
S'giocavano'
p1297
sba(iparrot.Element
Verb
p1298
(dp1299
g10
S'impf'
p1300
sg12
S'giocavate'
p1301
sba(iparrot.Element
Verb
p1302
(dp1303
g10
S'impf'
p1304
sg12
S'giocavo'
p1305
sba(iparrot.Element
Verb
p1306
(dp1307
g10
S'impf'
p1308
sg12
S'girava'
p1309
sba(iparrot.Element
Verb
p1310
(dp1311
g10
S'impf'
p1312
sg12
S'giravano'
p1313
sba(iparrot.Element
Verb
p1314
(dp1315
g10
S'impf'
p1316
sg12
S'giravo'
p1317
sba(iparrot.Element
Verb
p1318
(dp1319
g10
S'impf'
p1320
sg12
S'godeva'
p1321
sba(iparrot.Element
Verb
p1322
(dp1323
g10
S'impf'
p1324
sg12
S'governava'
p1325
sba(iparrot.Element
Verb
p1326
(dp1327
g10
S'impf'
p1328
sg12
S'gridavano'
p1329
sba(iparrot.Element
Verb
p1330
(dp1331
g10
S'impf'
p1332
sg12
S'gridavo'
p1333
sba(iparrot.Element
Verb
p1334
(dp1335
g10
S'impf'
p1336
sg12
S'guadagnava'
p1337
sba(iparrot.Element
Verb
p1338
(dp1339
g10
S'impf'
p1340
sg12
S'guadagnavate'
p1341
sba(iparrot.Element
Verb
p1342
(dp1343
g10
S'impf'
p1344
sg12
S'guadagnavo'
p1345
sba(iparrot.Element
Verb
p1346
(dp1347
g10
S'impf'
p1348
sg12
S'guardava'
p1349
sba(iparrot.Element
Verb
p1350
(dp1351
g10
S'impf'
p1352
sg12
S'guardavamo'
p1353
sba(iparrot.Element
Verb
p1354
(dp1355
g10
S'impf'
p1356
sg12
S'guardavano'
p1357
sba(iparrot.Element
Verb
p1358
(dp1359
g10
S'impf'
p1360
sg12
S'guardavo'
p1361
sba(iparrot.Element
Verb
p1362
(dp1363
g10
S'impf'
p1364
sg12
S'guidava'
p1365
sba(iparrot.Element
Verb
p1366
(dp1367
g10
S'impf'
p1368
sg12
S'identificava'
p1369
sba(iparrot.Element
Verb
p1370
(dp1371
g10
S'impf'
p1372
sg12
S'ignoravano'
p1373
sba(iparrot.Element
Verb
p1374
(dp1375
g10
S'impf'
p1376
sg12
S'illudeva'
p1377
sba(iparrot.Element
Verb
p1378
(dp1379
g10
S'impf'
p1380
sg12
S'illuminava'
p1381
sba(iparrot.Element
Verb
p1382
(dp1383
g10
S'impf'
p1384
sg12
S'imitava'
p1385
sba(iparrot.Element
Verb
p1386
(dp1387
g10
S'impf'
p1388
sg12
S'immaginavo'
p1389
sba(iparrot.Element
Verb
p1390
(dp1391
g10
S'impf'
p1392
sg12
S'imparavo'
p1393
sba(iparrot.Element
Verb
p1394
(dp1395
g10
S'impf'
p1396
sg12
S'impediva'
p1397
sba(iparrot.Element
Verb
p1398
(dp1399
g10
S'impf'
p1400
sg12
S'impedivano'
p1401
sba(iparrot.Element
Verb
p1402
(dp1403
g10
S'impf'
p1404
sg12
S'impiegava'
p1405
sba(iparrot.Element
Verb
p1406
(dp1407
g10
S'impf'
p1408
sg12
S'importava'
p1409
sba(iparrot.Element
Verb
p1410
(dp1411
g10
S'impf'
p1412
sg12
S'importavamo'
p1413
sba(iparrot.Element
Verb
p1414
(dp1415
g10
S'impf'
p1416
sg12
S'incontravo'
p1417
sba(iparrot.Element
Verb
p1418
(dp1419
g10
S'impf'
p1420
sg12
S'indicava'
p1421
sba(iparrot.Element
Verb
p1422
(dp1423
g10
S'impf'
p1424
sg12
S'indicavano'
p1425
sba(iparrot.Element
Verb
p1426
(dp1427
g10
S'impf'
p1428
sg12
S'indossava'
p1429
sba(iparrot.Element
Verb
p1430
(dp1431
g10
S'impf'
p1432
sg12
S'indossavano'
p1433
sba(iparrot.Element
Verb
p1434
(dp1435
g10
S'impf'
p1436
sg12
S'indossavate'
p1437
sba(iparrot.Element
Verb
p1438
(dp1439
g10
S'impf'
p1440
sg12
S'indossavi'
p1441
sba(iparrot.Element
Verb
p1442
(dp1443
g10
S'impf'
p1444
sg12
S'indossavo'
p1445
sba(iparrot.Element
Verb
p1446
(dp1447
g10
S'impf'
p1448
sg12
S'infastidiva'
p1449
sba(iparrot.Element
Verb
p1450
(dp1451
g10
S'impf'
p1452
sg12
S'iniziava'
p1453
sba(iparrot.Element
Verb
p1454
(dp1455
g10
S'impf'
p1456
sg12
S'iniziavano'
p1457
sba(iparrot.Element
Verb
p1458
(dp1459
g10
S'impf'
p1460
sg12
S'inondavano'
p1461
sba(iparrot.Element
Verb
p1462
(dp1463
g10
S'impf'
p1464
sg12
S'insegnava'
p1465
sba(iparrot.Element
Verb
p1466
(dp1467
g10
S'impf'
p1468
sg12
S'insegnavo'
p1469
sba(iparrot.Element
Verb
p1470
(dp1471
g10
S'impf'
p1472
sg12
S'inseguiva'
p1473
sba(iparrot.Element
Verb
p1474
(dp1475
g10
S'impf'
p1476
sg12
S'insisteva'
p1477
sba(iparrot.Element
Verb
p1478
(dp1479
g10
S'impf'
p1480
sg12
S'intendeva'
p1481
sba(iparrot.Element
Verb
p1482
(dp1483
g10
S'impf'
p1484
sg12
S'intendevo'
p1485
sba(iparrot.Element
Verb
p1486
(dp1487
g10
S'impf'
p1488
sg12
S'interessava'
p1489
sba(iparrot.Element
Verb
p1490
(dp1491
g10
S'impf'
p1492
sg12
S'interpretavo'
p1493
sba(iparrot.Element
Verb
p1494
(dp1495
g10
S'impf'
p1496
sg12
S'interrompeva'
p1497
sba(iparrot.Element
Verb
p1498
(dp1499
g10
S'impf'
p1500
sg12
S'intrufolavano'
p1501
sba(iparrot.Element
Verb
p1502
(dp1503
g10
S'impf'
p1504
sg12
S'invecchiava'
p1505
sba(iparrot.Element
Verb
p1506
(dp1507
g10
S'impf'
p1508
sg12
S'inventavano'
p1509
sba(iparrot.Element
Verb
p1510
(dp1511
g10
S'impf'
p1512
sg12
S'inviava'
p1513
sba(iparrot.Element
Verb
p1514
(dp1515
g10
S'impf'
p1516
sg12
S'invidiava'
p1517
sba(iparrot.Element
Verb
p1518
(dp1519
g10
S'impf'
p1520
sg12
S'invitavano'
p1521
sba(iparrot.Element
Verb
p1522
(dp1523
g10
S'impf'
p1524
sg12
S'lambiva'
p1525
sba(iparrot.Element
Verb
p1526
(dp1527
g10
S'impf'
p1528
sg12
S'lamentava'
p1529
sba(iparrot.Element
Verb
p1530
(dp1531
g10
S'impf'
p1532
sg12
S'lamentavo'
p1533
sba(iparrot.Element
Verb
p1534
(dp1535
g10
S'impf'
p1536
sg12
S'lanciava'
p1537
sba(iparrot.Element
Verb
p1538
(dp1539
g10
S'impf'
p1540
sg12
S'lasciava'
p1541
sba(iparrot.Element
Verb
p1542
(dp1543
g10
S'impf'
p1544
sg12
S'lavorava'
p1545
sba(iparrot.Element
Verb
p1546
(dp1547
g10
S'impf'
p1548
sg12
S'lavoravano'
p1549
sba(iparrot.Element
Verb
p1550
(dp1551
g10
S'impf'
p1552
sg12
S'lavoravate'
p1553
sba(iparrot.Element
Verb
p1554
(dp1555
g10
S'impf'
p1556
sg12
S'lavoravo'
p1557
sba(iparrot.Element
Verb
p1558
(dp1559
g10
S'impf'
p1560
sg12
S'leggeva'
p1561
sba(iparrot.Element
Verb
p1562
(dp1563
g10
S'impf'
p1564
sg12
S'leggevi'
p1565
sba(iparrot.Element
Verb
p1566
(dp1567
g10
S'impf'
p1568
sg12
S'leggevo'
p1569
sba(iparrot.Element
Verb
p1570
(dp1571
g10
S'impf'
p1572
sg12
S'lodavo'
p1573
sba(iparrot.Element
Verb
p1574
(dp1575
g10
S'impf'
p1576
sg12
S'luccicava'
p1577
sba(iparrot.Element
Verb
p1578
(dp1579
g10
S'impf'
p1580
sg12
S'luccicavano'
p1581
sba(iparrot.Element
Verb
p1582
(dp1583
g10
S'impf'
p1584
sg12
S'mancava'
p1585
sba(iparrot.Element
Verb
p1586
(dp1587
g10
S'impf'
p1588
sg12
S'mancavano'
p1589
sba(iparrot.Element
Verb
p1590
(dp1591
g10
S'impf'
p1592
sg12
S'mancavate'
p1593
sba(iparrot.Element
Verb
p1594
(dp1595
g10
S'impf'
p1596
sg12
S'maneggiava'
p1597
sba(iparrot.Element
Verb
p1598
(dp1599
g10
S'impf'
p1600
sg12
S'mangiava'
p1601
sba(iparrot.Element
Verb
p1602
(dp1603
g10
S'impf'
p1604
sg12
S'mangiavamo'
p1605
sba(iparrot.Element
Verb
p1606
(dp1607
g10
S'impf'
p1608
sg12
S'mangiavate'
p1609
sba(iparrot.Element
Verb
p1610
(dp1611
g10
S'impf'
p1612
sg12
S'mangiavo'
p1613
sba(iparrot.Element
Verb
p1614
(dp1615
g10
S'impf'
p1616
sg12
S'manipolavano'
p1617
sba(iparrot.Element
Verb
p1618
(dp1619
g10
S'impf'
p1620
sg12
S'mantenevano'
p1621
sba(iparrot.Element
Verb
p1622
(dp1623
g10
S'impf'
p1624
sg12
S'marciavano'
p1625
sba(iparrot.Element
Verb
p1626
(dp1627
g10
S'impf'
p1628
sg12
S'masticava'
p1629
sba(iparrot.Element
Verb
p1630
(dp1631
g10
S'impf'
p1632
sg12
S'masturbavano'
p1633
sba(iparrot.Element
Verb
p1634
(dp1635
g10
S'impf'
p1636
sg12
S'mentiva'
p1637
sba(iparrot.Element
Verb
p1638
(dp1639
g10
S'impf'
p1640
sg12
S'mentivo'
p1641
sba(iparrot.Element
Verb
p1642
(dp1643
g10
S'impf'
p1644
sg12
S'meritava'
p1645
sba(iparrot.Element
Verb
p1646
(dp1647
g10
S'impf'
p1648
sg12
S'meritavo'
p1649
sba(iparrot.Element
Verb
p1650
(dp1651
g10
S'impf'
p1652
sg12
S'metteva'
p1653
sba(iparrot.Element
Verb
p1654
(dp1655
g10
S'impf'
p1656
sg12
S'mettevano'
p1657
sba(iparrot.Element
Verb
p1658
(dp1659
g10
S'impf'
p1660
sg12
S'mettevo'
p1661
sba(iparrot.Element
Verb
p1662
(dp1663
g10
S'impf'
p1664
sg12
S'minacciava'
p1665
sba(iparrot.Element
Verb
p1666
(dp1667
g10
S'impf'
p1668
sg12
S'misurava'
p1669
sba(iparrot.Element
Verb
p1670
(dp1671
g10
S'impf'
p1672
sg12
S'montava'
p1673
sba(iparrot.Element
Verb
p1674
(dp1675
g10
S'impf'
p1676
sg12
S'moriva'
p1677
sba(iparrot.Element
Verb
p1678
(dp1679
g10
S'impf'
p1680
sg12
S'morivano'
p1681
sba(iparrot.Element
Verb
p1682
(dp1683
g10
S'impf'
p1684
sg12
S'morivo'
p1685
sba(iparrot.Element
Verb
p1686
(dp1687
g10
S'impf'
p1688
sg12
S'mostrava'
p1689
sba(iparrot.Element
Verb
p1690
(dp1691
g10
S'impf'
p1692
sg12
S'muoveva'
p1693
sba(iparrot.Element
Verb
p1694
(dp1695
g10
S'impf'
p1696
sg12
S'muovevano'
p1697
sba(iparrot.Element
Verb
p1698
(dp1699
g10
S'impf'
p1700
sg12
S'nascondeva'
p1701
sba(iparrot.Element
Verb
p1702
(dp1703
g10
S'impf'
p1704
sg12
S'nascondevano'
p1705
sba(iparrot.Element
Verb
p1706
(dp1707
g10
S'impf'
p1708
sg12
S'nascondevate'
p1709
sba(iparrot.Element
Verb
p1710
(dp1711
g10
S'impf'
p1712
sg12
S'nevicava'
p1713
sba(iparrot.Element
Verb
p1714
(dp1715
g10
S'impf'
p1716
sg12
S'nuotavamo'
p1717
sba(iparrot.Element
Verb
p1718
(dp1719
g10
S'impf'
p1720
sg12
S'nuotavano'
p1721
sba(iparrot.Element
Verb
p1722
(dp1723
g10
S'impf'
p1724
sg12
S'nuotavo'
p1725
sba(iparrot.Element
Verb
p1726
(dp1727
g10
S'impf'
p1728
sg12
S'nutrivano'
p1729
sba(iparrot.Element
Verb
p1730
(dp1731
g10
S'impf'
p1732
sg12
S'occupava'
p1733
sba(iparrot.Element
Verb
p1734
(dp1735
g10
S'impf'
p1736
sg12
S'occupavano'
p1737
sba(iparrot.Element
Verb
p1738
(dp1739
g10
S'impf'
p1740
sg12
S'occupavo'
p1741
sba(iparrot.Element
Verb
p1742
(dp1743
g10
S'impf'
p1744
sg12
S'odiava'
p1745
sba(iparrot.Element
Verb
p1746
(dp1747
g10
S'impf'
p1748
sg12
S'odiavano'
p1749
sba(iparrot.Element
Verb
p1750
(dp1751
g10
S'impf'
p1752
sg12
S'odiavo'
p1753
sba(iparrot.Element
Verb
p1754
(dp1755
g10
S'impf'
p1756
sg12
S'odorava'
p1757
sba(iparrot.Element
Verb
p1758
(dp1759
g10
S'impf'
p1760
sg12
S'offriva'
p1761
sba(iparrot.Element
Verb
p1762
(dp1763
g10
S'impf'
p1764
sg12
S'offrivano'
p1765
sba(iparrot.Element
Verb
p1766
(dp1767
g10
S'impf'
p1768
sg12
S'operavamo'
p1769
sba(iparrot.Element
Verb
p1770
(dp1771
g10
S'impf'
p1772
sg12
S'opponeva'
p1773
sba(iparrot.Element
Verb
p1774
(dp1775
g10
S'impf'
p1776
sg12
S'opponevano'
p1777
sba(iparrot.Element
Verb
p1778
(dp1779
g10
S'impf'
p1780
sg12
S'opprimeva'
p1781
sba(iparrot.Element
Verb
p1782
(dp1783
g10
S'impf'
p1784
sg12
S'osava'
p1785
sba(iparrot.Element
Verb
p1786
(dp1787
g10
S'impf'
p1788
sg12
S'oscillavano'
p1789
sba(iparrot.Element
Verb
p1790
(dp1791
g10
S'impf'
p1792
sg12
S'ospitava'
p1793
sba(iparrot.Element
Verb
p1794
(dp1795
g10
S'impf'
p1796
sg12
S'osservava'
p1797
sba(iparrot.Element
Verb
p1798
(dp1799
g10
S'impf'
p1800
sg12
S'oziava'
p1801
sba(iparrot.Element
Verb
p1802
(dp1803
g10
S'impf'
p1804
sg12
S'pagavo'
p1805
sba(iparrot.Element
Verb
p1806
(dp1807
g10
S'impf'
p1808
sg12
S'pareva'
p1809
sba(iparrot.Element
Verb
p1810
(dp1811
g10
S'impf'
p1812
sg12
S'parlava'
p1813
sba(iparrot.Element
Verb
p1814
(dp1815
g10
S'impf'
p1816
sg12
S'parlavamo'
p1817
sba(iparrot.Element
Verb
p1818
(dp1819
g10
S'impf'
p1820
sg12
S'parlavano'
p1821
sba(iparrot.Element
Verb
p1822
(dp1823
g10
S'impf'
p1824
sg12
S'parlavate'
p1825
sba(iparrot.Element
Verb
p1826
(dp1827
g10
S'impf'
p1828
sg12
S'parlavo'
p1829
sba(iparrot.Element
Verb
p1830
(dp1831
g10
S'impf'
p1832
sg12
S'partiva'
p1833
sba(iparrot.Element
Verb
p1834
(dp1835
g10
S'impf'
p1836
sg12
S'partivano'
p1837
sba(iparrot.Element
Verb
p1838
(dp1839
g10
S'impf'
p1840
sg12
S'partoriva'
p1841
sba(iparrot.Element
Verb
p1842
(dp1843
g10
S'impf'
p1844
sg12
S'passava'
p1845
sba(iparrot.Element
Verb
p1846
(dp1847
g10
S'impf'
p1848
sg12
S'passavo'
p1849
sba(iparrot.Element
Verb
p1850
(dp1851
g10
S'impf'
p1852
sg12
S'passeggiava'
p1853
sba(iparrot.Element
Verb
p1854
(dp1855
g10
S'impf'
p1856
sg12
S'passeggiavano'
p1857
sba(iparrot.Element
Verb
p1858
(dp1859
g10
S'impf'
p1860
sg12
S'passeggiavo'
p1861
sba(iparrot.Element
Verb
p1862
(dp1863
g10
S'impf'
p1864
sg12
S'pensava'
p1865
sba(iparrot.Element
Verb
p1866
(dp1867
g10
S'impf'
p1868
sg12
S'pensavamo'
p1869
sba(iparrot.Element
Verb
p1870
(dp1871
g10
S'impf'
p1872
sg12
S'pensavano'
p1873
sba(iparrot.Element
Verb
p1874
(dp1875
g10
S'impf'
p1876
sg12
S'pensavate'
p1877
sba(iparrot.Element
Verb
p1878
(dp1879
g10
S'impf'
p1880
sg12
S'pensavi'
p1881
sba(iparrot.Element
Verb
p1882
(dp1883
g10
S'impf'
p1884
sg12
S'pensavo'
p1885
sba(iparrot.Element
Verb
p1886
(dp1887
g10
S'impf'
p1888
sg12
S'percepiva'
p1889
sba(iparrot.Element
Verb
p1890
(dp1891
g10
S'impf'
p1892
sg12
S'percorreva'
p1893
sba(iparrot.Element
Verb
p1894
(dp1895
g10
S'impf'
p1896
sg12
S'perdevate'
p1897
sba(iparrot.Element
Verb
p1898
(dp1899
g10
S'impf'
p1900
sg12
S'permetteva'
p1901
sba(iparrot.Element
Verb
p1902
(dp1903
g10
S'impf'
p1904
sg12
S'pesavano'
p1905
sba(iparrot.Element
Verb
p1906
(dp1907
g10
S'impf'
p1908
sg12
S'pettinava'
p1909
sba(iparrot.Element
Verb
p1910
(dp1911
g10
S'impf'
p1912
sg12
S'piaceva'
p1913
sba(iparrot.Element
Verb
p1914
(dp1915
g10
S'impf'
p1916
sg12
S'piacevano'
p1917
sba(iparrot.Element
Verb
p1918
(dp1919
g10
S'impf'
p1920
sg12
S'piacevate'
p1921
sba(iparrot.Element
Verb
p1922
(dp1923
g10
S'impf'
p1924
sg12
S'piacevi'
p1925
sba(iparrot.Element
Verb
p1926
(dp1927
g10
S'impf'
p1928
sg12
S'piacevo'
p1929
sba(iparrot.Element
Verb
p1930
(dp1931
g10
S'impf'
p1932
sg12
S'piangeva'
p1933
sba(iparrot.Element
Verb
p1934
(dp1935
g10
S'impf'
p1936
sg12
S'piangevi'
p1937
sba(iparrot.Element
Verb
p1938
(dp1939
g10
S'impf'
p1940
sg12
S'piangevo'
p1941
sba(iparrot.Element
Verb
p1942
(dp1943
g10
S'impf'
p1944
sg12
S'picchiavano'
p1945
sba(iparrot.Element
Verb
p1946
(dp1947
g10
S'impf'
p1948
sg12
S'piegava'
p1949
sba(iparrot.Element
Verb
p1950
(dp1951
g10
S'impf'
p1952
sg12
S'pioveva'
p1953
sba(iparrot.Element
Verb
p1954
(dp1955
g10
S'impf'
p1956
sg12
S'piovigginava'
p1957
sba(iparrot.Element
Verb
p1958
(dp1959
g10
S'impf'
p1960
sg12
S'poneva'
p1961
sba(iparrot.Element
Verb
p1962
(dp1963
g10
S'impf'
p1964
sg12
S'portava'
p1965
sba(iparrot.Element
Verb
p1966
(dp1967
g10
S'impf'
p1968
sg12
S'portavano'
p1969
sba(iparrot.Element
Verb
p1970
(dp1971
g10
S'impf'
p1972
sg12
S'portavo'
p1973
sba(iparrot.Element
Verb
p1974
(dp1975
g10
S'impf'
p1976
sg12
S'possedeva'
p1977
sba(iparrot.Element
Verb
p1978
(dp1979
g10
S'impf'
p1980
sg12
S'potava'
p1981
sba(iparrot.Element
Verb
p1982
(dp1983
g10
S'impf'
p1984
sg12
S'poteva'
p1985
sba(iparrot.Element
Verb
p1986
(dp1987
g10
S'impf'
p1988
sg12
S'potevamo'
p1989
sba(iparrot.Element
Verb
p1990
(dp1991
g10
S'impf'
p1992
sg12
S'potevano'
p1993
sba(iparrot.Element
Verb
p1994
(dp1995
g10
S'impf'
p1996
sg12
S'potevate'
p1997
sba(iparrot.Element
Verb
p1998
(dp1999
g10
S'impf'
p2000
sg12
S'potevi'
p2001
sba(iparrot.Element
Verb
p2002
(dp2003
g10
S'impf'
p2004
sg12
S'potevo'
p2005
sba(iparrot.Element
Verb
p2006
(dp2007
g10
S'impf'
p2008
sg12
S'preferiva'
p2009
sba(iparrot.Element
Verb
p2010
(dp2011
g10
S'impf'
p2012
sg12
S'preferivo'
p2013
sba(iparrot.Element
Verb
p2014
(dp2015
g10
S'impf'
p2016
sg12
S'pregavo'
p2017
sba(iparrot.Element
Verb
p2018
(dp2019
g10
S'impf'
p2020
sg12
S'prendeva'
p2021
sba(iparrot.Element
Verb
p2022
(dp2023
g10
S'impf'
p2024
sg12
S'prendevamo'
p2025
sba(iparrot.Element
Verb
p2026
(dp2027
g10
S'impf'
p2028
sg12
S'prendevano'
p2029
sba(iparrot.Element
Verb
p2030
(dp2031
g10
S'impf'
p2032
sg12
S'prendevo'
p2033
sba(iparrot.Element
Verb
p2034
(dp2035
g10
S'impf'
p2036
sg12
S'preoccupava'
p2037
sba(iparrot.Element
Verb
p2038
(dp2039
g10
S'impf'
p2040
sg12
S'preoccupavo'
p2041
sba(iparrot.Element
Verb
p2042
(dp2043
g10
S'impf'
p2044
sg12
S'preparava'
p2045
sba(iparrot.Element
Verb
p2046
(dp2047
g10
S'impf'
p2048
sg12
S'presentava'
p2049
sba(iparrot.Element
Verb
p2050
(dp2051
g10
S'impf'
p2052
sg12
S'presentavano'
p2053
sba(iparrot.Element
Verb
p2054
(dp2055
g10
S'impf'
p2056
sg12
S'prestava'
p2057
sba(iparrot.Element
Verb
p2058
(dp2059
g10
S'impf'
p2060
sg12
S'prevedeva'
p2061
sba(iparrot.Element
Verb
p2062
(dp2063
g10
S'impf'
p2064
sg12
S'privilegiava'
p2065
sba(iparrot.Element
Verb
p2066
(dp2067
g10
S'impf'
p2068
sg12
S'procedeva'
p2069
sba(iparrot.Element
Verb
p2070
(dp2071
g10
S'impf'
p2072
sg12
S'proclamava'
p2073
sba(iparrot.Element
Verb
p2074
(dp2075
g10
S'impf'
p2076
sg12
S'produceva'
p2077
sba(iparrot.Element
Verb
p2078
(dp2079
g10
S'impf'
p2080
sg12
S'progettava'
p2081
sba(iparrot.Element
Verb
p2082
(dp2083
g10
S'impf'
p2084
sg12
S'progettavano'
p2085
sba(iparrot.Element
Verb
p2086
(dp2087
g10
S'impf'
p2088
sg12
S'proiettava'
p2089
sba(iparrot.Element
Verb
p2090
(dp2091
g10
S'impf'
p2092
sg12
S'prometteva'
p2093
sba(iparrot.Element
Verb
p2094
(dp2095
g10
S'impf'
p2096
sg12
S'propinavano'
p2097
sba(iparrot.Element
Verb
p2098
(dp2099
g10
S'impf'
p2100
sg12
S'provava'
p2101
sba(iparrot.Element
Verb
p2102
(dp2103
g10
S'impf'
p2104
sg12
S'provavamo'
p2105
sba(iparrot.Element
Verb
p2106
(dp2107
g10
S'impf'
p2108
sg12
S'provavo'
p2109
sba(iparrot.Element
Verb
p2110
(dp2111
g10
S'impf'
p2112
sg12
S'provocava'
p2113
sba(iparrot.Element
Verb
p2114
(dp2115
g10
S'impf'
p2116
sg12
S'pubblicava'
p2117
sba(iparrot.Element
Verb
p2118
(dp2119
g10
S'impf'
p2120
sg12
S'pulivo'
p2121
sba(iparrot.Element
Verb
p2122
(dp2123
g10
S'impf'
p2124
sg12
S'puntava'
p2125
sba(iparrot.Element
Verb
p2126
(dp2127
g10
S'impf'
p2128
sg12
S'puzzava'
p2129
sba(iparrot.Element
Verb
p2130
(dp2131
g10
S'impf'
p2132
sg12
S'puzzavano'
p2133
sba(iparrot.Element
Verb
p2134
(dp2135
g10
S'impf'
p2136
sg12
S'raccoglieva'
p2137
sba(iparrot.Element
Verb
p2138
(dp2139
g10
S'impf'
p2140
sg12
S'raccoglievano'
p2141
sba(iparrot.Element
Verb
p2142
(dp2143
g10
S'impf'
p2144
sg12
S'raccontava'
p2145
sba(iparrot.Element
Verb
p2146
(dp2147
g10
S'impf'
p2148
sg12
S'raddrizzava'
p2149
sba(iparrot.Element
Verb
p2150
(dp2151
g10
S'impf'
p2152
sg12
S'radiava'
p2153
sba(iparrot.Element
Verb
p2154
(dp2155
g10
S'impf'
p2156
sg12
S'rappresentava'
p2157
sba(iparrot.Element
Verb
p2158
(dp2159
g10
S'impf'
p2160
sg12
S'rappresentavano'
p2161
sba(iparrot.Element
Verb
p2162
(dp2163
g10
S'impf'
p2164
sg12
S'rappresentavo'
p2165
sba(iparrot.Element
Verb
p2166
(dp2167
g10
S'impf'
p2168
sg12
S'rasavo'
p2169
sba(iparrot.Element
Verb
p2170
(dp2171
g10
S'impf'
p2172
sg12
S'recitava'
p2173
sba(iparrot.Element
Verb
p2174
(dp2175
g10
S'impf'
p2176
sg12
S'reggeva'
p2177
sba(iparrot.Element
Verb
p2178
(dp2179
g10
S'impf'
p2180
sg12
S'regnava'
p2181
sba(iparrot.Element
Verb
p2182
(dp2183
g10
S'impf'
p2184
sg12
S'regolavano'
p2185
sba(iparrot.Element
Verb
p2186
(dp2187
g10
S'impf'
p2188
sg12
S'rendeva'
p2189
sba(iparrot.Element
Verb
p2190
(dp2191
g10
S'impf'
p2192
sg12
S'respiravo'
p2193
sba(iparrot.Element
Verb
p2194
(dp2195
g10
S'impf'
p2196
sg12
S'restava'
p2197
sba(iparrot.Element
Verb
p2198
(dp2199
g10
S'impf'
p2200
sg12
S'ricevevano'
p2201
sba(iparrot.Element
Verb
p2202
(dp2203
g10
S'impf'
p2204
sg12
S'riconoscevo'
p2205
sba(iparrot.Element
Verb
p2206
(dp2207
g10
S'impf'
p2208
sg12
S'ricopiava'
p2209
sba(iparrot.Element
Verb
p2210
(dp2211
g10
S'impf'
p2212
sg12
S'ricopriva'
p2213
sba(iparrot.Element
Verb
p2214
(dp2215
g10
S'impf'
p2216
sg12
S'ricordava'
p2217
sba(iparrot.Element
Verb
p2218
(dp2219
g10
S'impf'
p2220
sg12
S'ricordavo'
p2221
sba(iparrot.Element
Verb
p2222
(dp2223
g10
S'impf'
p2224
sg12
S'ridacchiava'
p2225
sba(iparrot.Element
Verb
p2226
(dp2227
g10
S'impf'
p2228
sg12
S'ridava'
p2229
sba(iparrot.Element
Verb
p2230
(dp2231
g10
S'impf'
p2232
sg12
S'rideva'
p2233
sba(iparrot.Element
Verb
p2234
(dp2235
g10
S'impf'
p2236
sg12
S'ridevamo'
p2237
sba(iparrot.Element
Verb
p2238
(dp2239
g10
S'impf'
p2240
sg12
S'ridevano'
p2241
sba(iparrot.Element
Verb
p2242
(dp2243
g10
S'impf'
p2244
sg12
S'ridevo'
p2245
sba(iparrot.Element
Verb
p2246
(dp2247
g10
S'impf'
p2248
sg12
S'riduceva'
p2249
sba(iparrot.Element
Verb
p2250
(dp2251
g10
S'impf'
p2252
sg12
S'riempivano'
p2253
sba(iparrot.Element
Verb
p2254
(dp2255
g10
S'impf'
p2256
sg12
S'rientrava'
p2257
sba(iparrot.Element
Verb
p2258
(dp2259
g10
S'impf'
p2260
sg12
S'riferiva'
p2261
sba(iparrot.Element
Verb
p2262
(dp2263
g10
S'impf'
p2264
sg12
S'riferivo'
p2265
sba(iparrot.Element
Verb
p2266
(dp2267
g10
S'impf'
p2268
sg12
S'rifiutava'
p2269
sba(iparrot.Element
Verb
p2270
(dp2271
g10
S'impf'
p2272
sg12
S'rifletteva'
p2273
sba(iparrot.Element
Verb
p2274
(dp2275
g10
S'impf'
p2276
sg12
S'riguardava'
p2277
sba(iparrot.Element
Verb
p2278
(dp2279
g10
S'impf'
p2280
sg12
S'riguardavano'
p2281
sba(iparrot.Element
Verb
p2282
(dp2283
g10
S'impf'
p2284
sg12
S'rilevavano'
p2285
sba(iparrot.Element
Verb
p2286
(dp2287
g10
S'impf'
p2288
sg12
S'rimaneva'
p2289
sba(iparrot.Element
Verb
p2290
(dp2291
g10
S'impf'
p2292
sg12
S'rimanevano'
p2293
sba(iparrot.Element
Verb
p2294
(dp2295
g10
S'impf'
p2296
sg12
S'rimanevo'
p2297
sba(iparrot.Element
Verb
p2298
(dp2299
g10
S'impf'
p2300
sg12
S'ringhiava'
p2301
sba(iparrot.Element
Verb
p2302
(dp2303
g10
S'impf'
p2304
sg12
S'ringraziavo'
p2305
sba(iparrot.Element
Verb
p2306
(dp2307
g10
S'impf'
p2308
sg12
S'ripeteva'
p2309
sba(iparrot.Element
Verb
p2310
(dp2311
g10
S'impf'
p2312
sg12
S'riposavano'
p2313
sba(iparrot.Element
Verb
p2314
(dp2315
g10
S'impf'
p2316
sg12
S'riprendevano'
p2317
sba(iparrot.Element
Verb
p2318
(dp2319
g10
S'impf'
p2320
sg12
S'rischiaravano'
p2321
sba(iparrot.Element
Verb
p2322
(dp2323
g10
S'impf'
p2324
sg12
S'risparmiavo'
p2325
sba(iparrot.Element
Verb
p2326
(dp2327
g10
S'impf'
p2328
sg12
S'rispettavano'
p2329
sba(iparrot.Element
Verb
p2330
(dp2331
g10
S'impf'
p2332
sg12
S'rispettavo'
p2333
sba(iparrot.Element
Verb
p2334
(dp2335
g10
S'impf'
p2336
sg12
S'rispondeva'
p2337
sba(iparrot.Element
Verb
p2338
(dp2339
g10
S'impf'
p2340
sg12
S'rispondevi'
p2341
sba(iparrot.Element
Verb
p2342
(dp2343
g10
S'impf'
p2344
sg12
S'ritornavano'
p2345
sba(iparrot.Element
Verb
p2346
(dp2347
g10
S'impf'
p2348
sg12
S'ritornavo'
p2349
sba(iparrot.Element
Verb
p2350
(dp2351
g10
S'impf'
p2352
sg12
S'riusciva'
p2353
sba(iparrot.Element
Verb
p2354
(dp2355
g10
S'impf'
p2356
sg12
S'riuscivamo'
p2357
sba(iparrot.Element
Verb
p2358
(dp2359
g10
S'impf'
p2360
sg12
S'riuscivano'
p2361
sba(iparrot.Element
Verb
p2362
(dp2363
g10
S'impf'
p2364
sg12
S'riuscivo'
p2365
sba(iparrot.Element
Verb
p2366
(dp2367
g10
S'impf'
p2368
sg12
S'sacrificava'
p2369
sba(iparrot.Element
Verb
p2370
(dp2371
g10
S'impf'
p2372
sg12
S'saltava'
p2373
sba(iparrot.Element
Verb
p2374
(dp2375
g10
S'impf'
p2376
sg12
S'saltavo'
p2377
sba(iparrot.Element
Verb
p2378
(dp2379
g10
S'impf'
p2380
sg12
S'saltellava'
p2381
sba(iparrot.Element
Verb
p2382
(dp2383
g10
S'impf'
p2384
sg12
S'sanguinava'
p2385
sba(iparrot.Element
Verb
p2386
(dp2387
g10
S'impf'
p2388
sg12
S'sanguinavo'
p2389
sba(iparrot.Element
Verb
p2390
(dp2391
g10
S'impf'
p2392
sg12
S'sapeva'
p2393
sba(iparrot.Element
Verb
p2394
(dp2395
g10
S'impf'
p2396
sg12
S'sapevamo'
p2397
sba(iparrot.Element
Verb
p2398
(dp2399
g10
S'impf'
p2400
sg12
S'sapevano'
p2401
sba(iparrot.Element
Verb
p2402
(dp2403
g10
S'impf'
p2404
sg12
S'sapevate'
p2405
sba(iparrot.Element
Verb
p2406
(dp2407
g10
S'impf'
p2408
sg12
S'sapevi'
p2409
sba(iparrot.Element
Verb
p2410
(dp2411
g10
S'impf'
p2412
sg12
S'sapevo'
p2413
sba(iparrot.Element
Verb
p2414
(dp2415
g10
S'impf'
p2416
sg12
S'sbadigliava'
p2417
sba(iparrot.Element
Verb
p2418
(dp2419
g10
S'impf'
p2420
sg12
S'sbagliava'
p2421
sba(iparrot.Element
Verb
p2422
(dp2423
g10
S'impf'
p2424
sg12
S'sbagliavo'
p2425
sba(iparrot.Element
Verb
p2426
(dp2427
g10
S'impf'
p2428
sg12
S'sbatteva'
p2429
sba(iparrot.Element
Verb
p2430
(dp2431
g10
S'impf'
p2432
sg12
S'sbrigavamo'
p2433
sba(iparrot.Element
Verb
p2434
(dp2435
g10
S'impf'
p2436
sg12
S'scaldavo'
p2437
sba(iparrot.Element
Verb
p2438
(dp2439
g10
S'impf'
p2440
sg12
S'scendeva'
p2441
sba(iparrot.Element
Verb
p2442
(dp2443
g10
S'impf'
p2444
sg12
S'scendevo'
p2445
sba(iparrot.Element
Verb
p2446
(dp2447
g10
S'impf'
p2448
sg12
S'scherzavo'
p2449
sba(iparrot.Element
Verb
p2450
(dp2451
g10
S'impf'
p2452
sg12
S'schiantava'
p2453
sba(iparrot.Element
Verb
p2454
(dp2455
g10
S'impf'
p2456
sg12
S'sciavo'
p2457
sba(iparrot.Element
Verb
p2458
(dp2459
g10
S'impf'
p2460
sg12
S'scodinzolava'
p2461
sba(iparrot.Element
Verb
p2462
(dp2463
g10
S'impf'
p2464
sg12
S'scoppiava'
p2465
sba(iparrot.Element
Verb
p2466
(dp2467
g10
S'impf'
p2468
sg12
S'scorgevano'
p2469
sba(iparrot.Element
Verb
p2470
(dp2471
g10
S'impf'
p2472
sg12
S'scorrazzava'
p2473
sba(iparrot.Element
Verb
p2474
(dp2475
g10
S'impf'
p2476
sg12
S'scorreva'
p2477
sba(iparrot.Element
Verb
p2478
(dp2479
g10
S'impf'
p2480
sg12
S'scorrevano'
p2481
sba(iparrot.Element
Verb
p2482
(dp2483
g10
S'impf'
p2484
sg12
S'scriveva'
p2485
sba(iparrot.Element
Verb
p2486
(dp2487
g10
S'impf'
p2488
sg12
S'scrivevano'
p2489
sba(iparrot.Element
Verb
p2490
(dp2491
g10
S'impf'
p2492
sg12
S'scrivevo'
p2493
sba(iparrot.Element
Verb
p2494
(dp2495
g10
S'impf'
p2496
sg12
S'sedeva'
p2497
sba(iparrot.Element
Verb
p2498
(dp2499
g10
S'impf'
p2500
sg12
S'sedevamo'
p2501
sba(iparrot.Element
Verb
p2502
(dp2503
g10
S'impf'
p2504
sg12
S'sedevo'
p2505
sba(iparrot.Element
Verb
p2506
(dp2507
g10
S'impf'
p2508
sg12
S'segnava'
p2509
sba(iparrot.Element
Verb
p2510
(dp2511
g10
S'impf'
p2512
sg12
S'seguiva'
p2513
sba(iparrot.Element
Verb
p2514
(dp2515
g10
S'impf'
p2516
sg12
S'seguivamo'
p2517
sba(iparrot.Element
Verb
p2518
(dp2519
g10
S'impf'
p2520
sg12
S'seguivano'
p2521
sba(iparrot.Element
Verb
p2522
(dp2523
g10
S'impf'
p2524
sg12
S'seguivo'
p2525
sba(iparrot.Element
Verb
p2526
(dp2527
g10
S'impf'
p2528
sg12
S'sembrava'
p2529
sba(iparrot.Element
Verb
p2530
(dp2531
g10
S'impf'
p2532
sg12
S'sembravano'
p2533
sba(iparrot.Element
Verb
p2534
(dp2535
g10
S'impf'
p2536
sg12
S'sembravate'
p2537
sba(iparrot.Element
Verb
p2538
(dp2539
g10
S'impf'
p2540
sg12
S'sembravi'
p2541
sba(iparrot.Element
Verb
p2542
(dp2543
g10
S'impf'
p2544
sg12
S'sembravo'
p2545
sba(iparrot.Element
Verb
p2546
(dp2547
g10
S'impf'
p2548
sg12
S'sentiva'
p2549
sba(iparrot.Element
Verb
p2550
(dp2551
g10
S'impf'
p2552
sg12
S'sentivamo'
p2553
sba(iparrot.Element
Verb
p2554
(dp2555
g10
S'impf'
p2556
sg12
S'sentivano'
p2557
sba(iparrot.Element
Verb
p2558
(dp2559
g10
S'impf'
p2560
sg12
S'sentivate'
p2561
sba(iparrot.Element
Verb
p2562
(dp2563
g10
S'impf'
p2564
sg12
S'sentivo'
p2565
sba(iparrot.Element
Verb
p2566
(dp2567
g10
S'impf'
p2568
sg12
S'serviva'
p2569
sba(iparrot.Element
Verb
p2570
(dp2571
g10
S'impf'
p2572
sg12
S'servivano'
p2573
sba(iparrot.Element
Verb
p2574
(dp2575
g10
S'impf'
p2576
sg12
S'sfigurava'
p2577
sba(iparrot.Element
Verb
p2578
(dp2579
g10
S'impf'
p2580
sg12
S'sfiguravano'
p2581
sba(iparrot.Element
Verb
p2582
(dp2583
g10
S'impf'
p2584
sg12
S'sfotteva'
p2585
sba(iparrot.Element
Verb
p2586
(dp2587
g10
S'impf'
p2588
sg12
S'sgattaiolava'
p2589
sba(iparrot.Element
Verb
p2590
(dp2591
g10
S'impf'
p2592
sg12
S'significava'
p2593
sba(iparrot.Element
Verb
p2594
(dp2595
g10
S'impf'
p2596
sg12
S'smetteva'
p2597
sba(iparrot.Element
Verb
p2598
(dp2599
g10
S'impf'
p2600
sg12
S'smettevamo'
p2601
sba(iparrot.Element
Verb
p2602
(dp2603
g10
S'impf'
p2604
sg12
S'soffiava'
p2605
sba(iparrot.Element
Verb
p2606
(dp2607
g10
S'impf'
p2608
sg12
S'soffriva'
p2609
sba(iparrot.Element
Verb
p2610
(dp2611
g10
S'impf'
p2612
sg12
S'sogghignava'
p2613
sba(iparrot.Element
Verb
p2614
(dp2615
g10
S'impf'
p2616
sg12
S'sognava'
p2617
sba(iparrot.Element
Verb
p2618
(dp2619
g10
S'impf'
p2620
sg12
S'sognavi'
p2621
sba(iparrot.Element
Verb
p2622
(dp2623
g10
S'impf'
p2624
sg12
S'sognavo'
p2625
sba(iparrot.Element
Verb
p2626
(dp2627
g10
S'impf'
p2628
sg12
S'soleva'
p2629
sba(iparrot.Element
Verb
p2630
(dp2631
g10
S'impf'
p2632
sg12
S'solleticavano'
p2633
sba(iparrot.Element
Verb
p2634
(dp2635
g10
S'impf'
p2636
sg12
S'sonnecchiava'
p2637
sba(iparrot.Element
Verb
p2638
(dp2639
g10
S'impf'
p2640
sg12
S'sopportava'
p2641
sba(iparrot.Element
Verb
p2642
(dp2643
g10
S'impf'
p2644
sg12
S'sorpassava'
p2645
sba(iparrot.Element
Verb
p2646
(dp2647
g10
S'impf'
p2648
sg12
S'sorrideva'
p2649
sba(iparrot.Element
Verb
p2650
(dp2651
g10
S'impf'
p2652
sg12
S'sorseggiava'
p2653
sba(iparrot.Element
Verb
p2654
(dp2655
g10
S'impf'
p2656
sg12
S'sospettavamo'
p2657
sba(iparrot.Element
Verb
p2658
(dp2659
g10
S'impf'
p2660
sg12
S'sosteneva'
p2661
sba(iparrot.Element
Verb
p2662
(dp2663
g10
S'impf'
p2664
sg12
S'sostenevo'
p2665
sba(iparrot.Element
Verb
p2666
(dp2667
g10
S'impf'
p2668
sg12
S'sottomettevano'
p2669
sba(iparrot.Element
Verb
p2670
(dp2671
g10
S'impf'
p2672
sg12
S'spaccavano'
p2673
sba(iparrot.Element
Verb
p2674
(dp2675
g10
S'impf'
p2676
sg12
S'spargevano'
p2677
sba(iparrot.Element
Verb
p2678
(dp2679
g10
S'impf'
p2680
sg12
S'spazzolava'
p2681
sba(iparrot.Element
Verb
p2682
(dp2683
g10
S'impf'
p2684
sg12
S'spendeva'
p2685
sba(iparrot.Element
Verb
p2686
(dp2687
g10
S'impf'
p2688
sg12
S'sperava'
p2689
sba(iparrot.Element
Verb
p2690
(dp2691
g10
S'impf'
p2692
sg12
S'speravamo'
p2693
sba(iparrot.Element
Verb
p2694
(dp2695
g10
S'impf'
p2696
sg12
S'speravate'
p2697
sba(iparrot.Element
Verb
p2698
(dp2699
g10
S'impf'
p2700
sg12
S'speravi'
p2701
sba(iparrot.Element
Verb
p2702
(dp2703
g10
S'impf'
p2704
sg12
S'speravo'
p2705
sba(iparrot.Element
Verb
p2706
(dp2707
g10
S'impf'
p2708
sg12
S'spiccava'
p2709
sba(iparrot.Element
Verb
p2710
(dp2711
g10
S'impf'
p2712
sg12
S'spingeva'
p2713
sba(iparrot.Element
Verb
p2714
(dp2715
g10
S'impf'
p2716
sg12
S'sragionava'
p2717
sba(iparrot.Element
Verb
p2718
(dp2719
g10
S'impf'
p2720
sg12
S'stancavano'
p2721
sba(iparrot.Element
Verb
p2722
(dp2723
g10
S'impf'
p2724
sg12
S'stancavate'
p2725
sba(iparrot.Element
Verb
p2726
(dp2727
g10
S'impf'
p2728
sg12
S'stava'
p2729
sba(iparrot.Element
Verb
p2730
(dp2731
g10
S'impf'
p2732
sg12
S'stavamo'
p2733
sba(iparrot.Element
Verb
p2734
(dp2735
g10
S'impf'
p2736
sg12
S'stavano'
p2737
sba(iparrot.Element
Verb
p2738
(dp2739
g10
S'impf'
p2740
sg12
S'stavate'
p2741
sba(iparrot.Element
Verb
p2742
(dp2743
g10
S'impf'
p2744
sg12
S'stavi'
p2745
sba(iparrot.Element
Verb
p2746
(dp2747
g10
S'impf'
p2748
sg12
S'stavo'
p2749
sba(iparrot.Element
Verb
p2750
(dp2751
g10
S'impf'
p2752
sg12
S'stendeva'
p2753
sba(iparrot.Element
Verb
p2754
(dp2755
g10
S'impf'
p2756
sg12
S'stringeva'
p2757
sba(iparrot.Element
Verb
p2758
(dp2759
g10
S'impf'
p2760
sg12
S'studiava'
p2761
sba(iparrot.Element
Verb
p2762
(dp2763
g10
S'impf'
p2764
sg12
S'studiavamo'
p2765
sba(iparrot.Element
Verb
p2766
(dp2767
g10
S'impf'
p2768
sg12
S'studiavano'
p2769
sba(iparrot.Element
Verb
p2770
(dp2771
g10
S'impf'
p2772
sg12
S'studiavo'
p2773
sba(iparrot.Element
Verb
p2774
(dp2775
g10
S'impf'
p2776
sg12
S'succedeva'
p2777
sba(iparrot.Element
Verb
p2778
(dp2779
g10
S'impf'
p2780
sg12
S'suonava'
p2781
sba(iparrot.Element
Verb
p2782
(dp2783
g10
S'impf'
p2784
sg12
S'suonavano'
p2785
sba(iparrot.Element
Verb
p2786
(dp2787
g10
S'impf'
p2788
sg12
S'suonavo'
p2789
sba(iparrot.Element
Verb
p2790
(dp2791
g10
S'impf'
p2792
sg12
S'superava'
p2793
sba(iparrot.Element
Verb
p2794
(dp2795
g10
S'impf'
p2796
sg12
S'svegliava'
p2797
sba(iparrot.Element
Verb
p2798
(dp2799
g10
S'impf'
p2800
sg12
S'svegliavo'
p2801
sba(iparrot.Element
Verb
p2802
(dp2803
g10
S'impf'
p2804
sg12
S'svolazzavano'
p2805
sba(iparrot.Element
Verb
p2806
(dp2807
g10
S'impf'
p2808
sg12
S'tamburellava'
p2809
sba(iparrot.Element
Verb
p2810
(dp2811
g10
S'impf'
p2812
sg12
S'temeva'
p2813
sba(iparrot.Element
Verb
p2814
(dp2815
g10
S'impf'
p2816
sg12
S'temevano'
p2817
sba(iparrot.Element
Verb
p2818
(dp2819
g10
S'impf'
p2820
sg12
S'temevo'
p2821
sba(iparrot.Element
Verb
p2822
(dp2823
g10
S'impf'
p2824
sg12
S'tempestava'
p2825
sba(iparrot.Element
Verb
p2826
(dp2827
g10
S'impf'
p2828
sg12
S'tendeva'
p2829
sba(iparrot.Element
Verb
p2830
(dp2831
g10
S'impf'
p2832
sg12
S'tendevano'
p2833
sba(iparrot.Element
Verb
p2834
(dp2835
g10
S'impf'
p2836
sg12
S'teneva'
p2837
sba(iparrot.Element
Verb
p2838
(dp2839
g10
S'impf'
p2840
sg12
S'tenevo'
p2841
sba(iparrot.Element
Verb
p2842
(dp2843
g10
S'impf'
p2844
sg12
S'tentavo'
p2845
sba(iparrot.Element
Verb
p2846
(dp2847
g10
S'impf'
p2848
sg12
S'terminava'
p2849
sba(iparrot.Element
Verb
p2850
(dp2851
g10
S'impf'
p2852
sg12
S'terrorizzava'
p2853
sba(iparrot.Element
Verb
p2854
(dp2855
g10
S'impf'
p2856
sg12
S'tirava'
p2857
sba(iparrot.Element
Verb
p2858
(dp2859
g10
S'impf'
p2860
sg12
S'tiravano'
p2861
sba(iparrot.Element
Verb
p2862
(dp2863
g10
S'impf'
p2864
sg12
S'toccavano'
p2865
sba(iparrot.Element
Verb
p2866
(dp2867
g10
S'impf'
p2868
sg12
S'tornava'
p2869
sba(iparrot.Element
Verb
p2870
(dp2871
g10
S'impf'
p2872
sg12
S'tornavo'
p2873
sba(iparrot.Element
Verb
p2874
(dp2875
g10
S'impf'
p2876
sg12
S'torturava'
p2877
sba(iparrot.Element
Verb
p2878
(dp2879
g10
S'impf'
p2880
sg12
S'torturavano'
p2881
sba(iparrot.Element
Verb
p2882
(dp2883
g10
S'impf'
p2884
sg12
S'tossiva'
p2885
sba(iparrot.Element
Verb
p2886
(dp2887
g10
S'impf'
p2888
sg12
S'tossivo'
p2889
sba(iparrot.Element
Verb
p2890
(dp2891
g10
S'impf'
p2892
sg12
S'tradiva'
p2893
sba(iparrot.Element
Verb
p2894
(dp2895
g10
S'impf'
p2896
sg12
S'traducevo'
p2897
sba(iparrot.Element
Verb
p2898
(dp2899
g10
S'impf'
p2900
sg12
S'tramandavano'
p2901
sba(iparrot.Element
Verb
p2902
(dp2903
g10
S'impf'
p2904
sg12
S'trascorreva'
p2905
sba(iparrot.Element
Verb
p2906
(dp2907
g10
S'impf'
p2908
sg12
S'trasportava'
p2909
sba(iparrot.Element
Verb
p2910
(dp2911
g10
S'impf'
p2912
sg12
S'trasportavano'
p2913
sba(iparrot.Element
Verb
p2914
(dp2915
g10
S'impf'
p2916
sg12
S'trattava'
p2917
sba(iparrot.Element
Verb
p2918
(dp2919
g10
S'impf'
p2920
sg12
S'trattavo'
p2921
sba(iparrot.Element
Verb
p2922
(dp2923
g10
S'impf'
p2924
sg12
S'tremava'
p2925
sba(iparrot.Element
Verb
p2926
(dp2927
g10
S'impf'
p2928
sg12
S'tremavano'
p2929
sba(iparrot.Element
Verb
p2930
(dp2931
g10
S'impf'
p2932
sg12
S'trovava'
p2933
sba(iparrot.Element
Verb
p2934
(dp2935
g10
S'impf'
p2936
sg12
S'trovavi'
p2937
sba(iparrot.Element
Verb
p2938
(dp2939
g10
S'impf'
p2940
sg12
S'trovavo'
p2941
sba(iparrot.Element
Verb
p2942
(dp2943
g10
S'impf'
p2944
sg12
S'ubriacava'
p2945
sba(iparrot.Element
Verb
p2946
(dp2947
g10
S'impf'
p2948
sg12
S'uccidevano'
p2949
sba(iparrot.Element
Verb
p2950
(dp2951
g10
S'impf'
p2952
sg12
S'urinavo'
p2953
sba(iparrot.Element
Verb
p2954
(dp2955
g10
S'impf'
p2956
sg12
S'urlavano'
p2957
sba(iparrot.Element
Verb
p2958
(dp2959
g10
S'impf'
p2960
sg12
S'urlavo'
p2961
sba(iparrot.Element
Verb
p2962
(dp2963
g10
S'impf'
p2964
sg12
S'usava'
p2965
sba(iparrot.Element
Verb
p2966
(dp2967
g10
S'impf'
p2968
sg12
S'usavano'
p2969
sba(iparrot.Element
Verb
p2970
(dp2971
g10
S'impf'
p2972
sg12
S'usavo'
p2973
sba(iparrot.Element
Verb
p2974
(dp2975
g10
S'impf'
p2976
sg12
S'uscivamo'
p2977
sba(iparrot.Element
Verb
p2978
(dp2979
g10
S'impf'
p2980
sg12
S'uscivo'
p2981
sba(iparrot.Element
Verb
p2982
(dp2983
g10
S'impf'
p2984
sg12
S'utilizzava'
p2985
sba(iparrot.Element
Verb
p2986
(dp2987
g10
S'impf'
p2988
sg12
S'utilizzavano'
p2989
sba(iparrot.Element
Verb
p2990
(dp2991
g10
S'impf'
p2992
sg12
S'valeva'
p2993
sba(iparrot.Element
Verb
p2994
(dp2995
g10
S'impf'
p2996
sg12
S'valevi'
p2997
sba(iparrot.Element
Verb
p2998
(dp2999
g10
S'impf'
p3000
sg12
S'vedeva'
p3001
sba(iparrot.Element
Verb
p3002
(dp3003
g10
S'impf'
p3004
sg12
S'vedevamo'
p3005
sba(iparrot.Element
Verb
p3006
(dp3007
g10
S'impf'
p3008
sg12
S'vedevano'
p3009
sba(iparrot.Element
Verb
p3010
(dp3011
g10
S'impf'
p3012
sg12
S'vedevo'
p3013
sba(iparrot.Element
Verb
p3014
(dp3015
g10
S'impf'
p3016
sg12
S'vendeva'
p3017
sba(iparrot.Element
Verb
p3018
(dp3019
g10
S'impf'
p3020
sg12
S'veniva'
p3021
sba(iparrot.Element
Verb
p3022
(dp3023
g10
S'impf'
p3024
sg12
S'venivano'
p3025
sba(iparrot.Element
Verb
p3026
(dp3027
g10
S'impf'
p3028
sg12
S'venivi'
p3029
sba(iparrot.Element
Verb
p3030
(dp3031
g10
S'impf'
p3032
sg12
S'venivo'
p3033
sba(iparrot.Element
Verb
p3034
(dp3035
g10
S'impf'
p3036
sg12
S'vergognava'
p3037
sba(iparrot.Element
Verb
p3038
(dp3039
g10
S'impf'
p3040
sg12
S'vestiva'
p3041
sba(iparrot.Element
Verb
p3042
(dp3043
g10
S'impf'
p3044
sg12
S'vestivano'
p3045
sba(iparrot.Element
Verb
p3046
(dp3047
g10
S'impf'
p3048
sg12
S'vestivo'
p3049
sba(iparrot.Element
Verb
p3050
(dp3051
g10
S'impf'
p3052
sg12
S'viaggiava'
p3053
sba(iparrot.Element
Verb
p3054
(dp3055
g10
S'impf'
p3056
sg12
S'viaggiavamo'
p3057
sba(iparrot.Element
Verb
p3058
(dp3059
g10
S'impf'
p3060
sg12
S'viaggiavo'
p3061
sba(iparrot.Element
Verb
p3062
(dp3063
g10
S'impf'
p3064
sg12
S'vibrava'
p3065
sba(iparrot.Element
Verb
p3066
(dp3067
g10
S'impf'
p3068
sg12
S'vincevo'
p3069
sba(iparrot.Element
Verb
p3070
(dp3071
g10
S'impf'
p3072
sg12
S'visitava'
p3073
sba(iparrot.Element
Verb
p3074
(dp3075
g10
S'impf'
p3076
sg12
S'viveva'
p3077
sba(iparrot.Element
Verb
p3078
(dp3079
g10
S'impf'
p3080
sg12
S'vivevamo'
p3081
sba(iparrot.Element
Verb
p3082
(dp3083
g10
S'impf'
p3084
sg12
S'vivevano'
p3085
sba(iparrot.Element
Verb
p3086
(dp3087
g10
S'impf'
p3088
sg12
S'vivevate'
p3089
sba(iparrot.Element
Verb
p3090
(dp3091
g10
S'impf'
p3092
sg12
S'vivevi'
p3093
sba(iparrot.Element
Verb
p3094
(dp3095
g10
S'impf'
p3096
sg12
S'vivevo'
p3097
sba(iparrot.Element
Verb
p3098
(dp3099
g10
S'impf'
p3100
sg12
S'volava'
p3101
sba(iparrot.Element
Verb
p3102
(dp3103
g10
S'impf'
p3104
sg12
S'volavano'
p3105
sba(iparrot.Element
Verb
p3106
(dp3107
g10
S'impf'
p3108
sg12
S'voleva'
p3109
sba(iparrot.Element
Verb
p3110
(dp3111
g10
S'impf'
p3112
sg12
S'volevamo'
p3113
sba(iparrot.Element
Verb
p3114
(dp3115
g10
S'impf'
p3116
sg12
S'volevano'
p3117
sba(iparrot.Element
Verb
p3118
(dp3119
g10
S'impf'
p3120
sg12
S'volevate'
p3121
sba(iparrot.Element
Verb
p3122
(dp3123
g10
S'impf'
p3124
sg12
S'volevi'
p3125
sba(iparrot.Element
Verb
p3126
(dp3127
g10
S'impf'
p3128
sg12
S'volevo'
p3129
sba(iparrot.Element
Verb
p3130
(dp3131
g10
S'impf'
p3132
sg12
S'volteggiava'
p3133
sba(iparrot.Element
Verb
p3134
(dp3135
g10
S'impf'
p3136
sg12
S'volteggiavano'
p3137
sba(iparrot.Element
Verb
p3138
(dp3139
g10
S'impf'
p3140
sg12
S'vomitavo'
p3141
sba(iparrot.Element
Verb
p3142
(dp3143
g10
S'mono'
p3144
sg12
S'abbacare'
p3145
sba(iparrot.Element
Verb
p3146
(dp3147
g10
S'mono'
p3148
sg12
S'abbacchiare'
p3149
sba(iparrot.Element
Verb
p3150
(dp3151
g10
S'mono'
p3152
sg12
S'abbadare'
p3153
sba(iparrot.Element
Verb
p3154
(dp3155
g10
S'mono'
p3156
sg12
S'abbagliare'
p3157
sba(iparrot.Element
Verb
p3158
(dp3159
g10
S'mono'
p3160
sg12
S'abbaiare'
p3161
sba(iparrot.Element
Verb
p3162
(dp3163
g10
S'mono'
p3164
sg12
S'abbarbagliare'
p3165
sba(iparrot.Element
Verb
p3166
(dp3167
g10
S'mono'
p3168
sg12
S'abbarbare'
p3169
sba(iparrot.Element
Verb
p3170
(dp3171
g10
S'mono'
p3172
sg12
S'abbarbicare'
p3173
sba(iparrot.Element
Verb
p3174
(dp3175
g10
S'mono'
p3176
sg12
S'abbastare'
p3177
sba(iparrot.Element
Verb
p3178
(dp3179
g10
S'mono'
p3180
sg12
S'abbioccare'
p3181
sba(iparrot.Element
Verb
p3182
(dp3183
g10
S'mono'
p3184
sg12
S'abbisognare'
p3185
sba(iparrot.Element
Verb
p3186
(dp3187
g10
S'mono'
p3188
sg12
S'abboccare'
p3189
sba(iparrot.Element
Verb
p3190
(dp3191
g10
S'mono'
p3192
sg12
S'abbondare'
p3193
sba(iparrot.Element
Verb
p3194
(dp3195
g10
S'mono'
p3196
sg12
S'abborrire'
p3197
sba(iparrot.Element
Verb
p3198
(dp3199
g10
S'mono'
p3200
sg12
S'abbrezzare'
p3201
sba(iparrot.Element
Verb
p3202
(dp3203
g10
S'mono'
p3204
sg12
S'abbrividire'
p3205
sba(iparrot.Element
Verb
p3206
(dp3207
g10
S'mono'
p3208
sg12
S'abbrucci\xc3\xa0'
p3209
sba(iparrot.Element
Verb
p3210
(dp3211
g10
S'mono'
p3212
sg12
S'abbrumare'
p3213
sba(iparrot.Element
Verb
p3214
(dp3215
g10
S'mono'
p3216
sg12
S'abbuzzire'
p3217
sba(iparrot.Element
Verb
p3218
(dp3219
g10
S'mono'
p3220
sg12
S'abdicare'
p3221
sba(iparrot.Element
Verb
p3222
(dp3223
g10
S'mono'
p3224
sg12
S'aberrare'
p3225
sba(iparrot.Element
Verb
p3226
(dp3227
g10
S'mono'
p3228
sg12
S'abissare'
p3229
sba(iparrot.Element
Verb
p3230
(dp3231
g10
S'mono'
p3232
sg12
S'abitare'
p3233
sba(iparrot.Element
Verb
p3234
(dp3235
g10
S'mono'
p3236
sg12
S'aborrire'
p3237
sba(iparrot.Element
Verb
p3238
(dp3239
g10
S'mono'
p3240
sg12
S'abusare'
p3241
sba(iparrot.Element
Verb
p3242
(dp3243
g10
S'mono'
p3244
sg12
S'accadere'
p3245
sba(iparrot.Element
Verb
p3246
(dp3247
g10
S'mono'
p3248
sg12
S'accagliarsi'
p3249
sba(iparrot.Element
Verb
p3250
(dp3251
g10
S'mono'
p3252
sg12
S'accanire'
p3253
sba(iparrot.Element
Verb
p3254
(dp3255
g10
S'mono'
p3256
sg12
S'accapponare'
p3257
sba(iparrot.Element
Verb
p3258
(dp3259
g10
S'mono'
p3260
sg12
S'accapricciare'
p3261
sba(iparrot.Element
Verb
p3262
(dp3263
g10
S'mono'
p3264
sg12
S'accascare'
p3265
sba(iparrot.Element
Verb
p3266
(dp3267
g10
S'mono'
p3268
sg12
S'accatarrare'
p3269
sba(iparrot.Element
Verb
p3270
(dp3271
g10
S'mono'
p3272
sg12
S'accedere'
p3273
sba(iparrot.Element
Verb
p3274
(dp3275
g10
S'mono'
p3276
sg12
S'accelerare'
p3277
sba(iparrot.Element
Verb
p3278
(dp3279
g10
S'mono'
p3280
sg12
S'accennare'
p3281
sba(iparrot.Element
Verb
p3282
(dp3283
g10
S'mono'
p3284
sg12
S'acchiantare'
p3285
sba(iparrot.Element
Verb
p3286
(dp3287
g10
S'mono'
p3288
sg12
S'acciabattare'
p3289
sba(iparrot.Element
Verb
p3290
(dp3291
g10
S'mono'
p3292
sg12
S'acciucchire'
p3293
sba(iparrot.Element
Verb
p3294
(dp3295
g10
S'mono'
p3296
sg12
S'accomodare'
p3297
sba(iparrot.Element
Verb
p3298
(dp3299
g10
S'mono'
p3300
sg12
S'accondiscendere'
p3301
sba(iparrot.Element
Verb
p3302
(dp3303
g10
S'mono'
p3304
sg12
S'acconsentire'
p3305
sba(iparrot.Element
Verb
p3306
(dp3307
g10
S'mono'
p3308
sg12
S'accorrere'
p3309
sba(iparrot.Element
Verb
p3310
(dp3311
g10
S'mono'
p3312
sg12
S'accostare'
p3313
sba(iparrot.Element
Verb
p3314
(dp3315
g10
S'mono'
p3316
sg12
S'accozzare'
p3317
sba(iparrot.Element
Verb
p3318
(dp3319
g10
S'mono'
p3320
sg12
S'acquapendere'
p3321
sba(iparrot.Element
Verb
p3322
(dp3323
g10
S'mono'
p3324
sg12
S'acquare'
p3325
sba(iparrot.Element
Verb
p3326
(dp3327
g10
S'mono'
p3328
sg12
S'acquiescere'
p3329
sba(iparrot.Element
Verb
p3330
(dp3331
g10
S'mono'
p3332
sg12
S'acquietarsi'
p3333
sba(iparrot.Element
Verb
p3334
(dp3335
g10
S'mono'
p3336
sg12
S'addivenire'
p3337
sba(iparrot.Element
Verb
p3338
(dp3339
g10
S'mono'
p3340
sg12
S'addolcare'
p3341
sba(iparrot.Element
Verb
p3342
(dp3343
g10
S'mono'
p3344
sg12
S'aderire'
p3345
sba(iparrot.Element
Verb
p3346
(dp3347
g10
S'mono'
p3348
sg12
S'adorezzare'
p3349
sba(iparrot.Element
Verb
p3350
(dp3351
g10
S'mono'
p3352
sg12
S'affacciare'
p3353
sba(iparrot.Element
Verb
p3354
(dp3355
g10
S'mono'
p3356
sg12
S'afferire'
p3357
sba(iparrot.Element
Verb
p3358
(dp3359
g10
S'mono'
p3360
sg12
S'affogare'
p3361
sba(iparrot.Element
Verb
p3362
(dp3363
g10
S'mono'
p3364
sg12
S'affondare'
p3365
sba(iparrot.Element
Verb
p3366
(dp3367
g10
S'mono'
p3368
sg12
S'agghiacciare'
p3369
sba(iparrot.Element
Verb
p3370
(dp3371
g10
S'mono'
p3372
sg12
S'agghiadare'
p3373
sba(iparrot.Element
Verb
p3374
(dp3375
g10
S'mono'
p3376
sg12
S'agguatare'
p3377
sba(iparrot.Element
Verb
p3378
(dp3379
g10
S'mono'
p3380
sg12
S'agire'
p3381
sba(iparrot.Element
Verb
p3382
(dp3383
g10
S'mono'
p3384
sg12
S'agonizzare'
p3385
sba(iparrot.Element
Verb
p3386
(dp3387
g10
S'mono'
p3388
sg12
S'alchimizzare'
p3389
sba(iparrot.Element
Verb
p3390
(dp3391
g10
S'mono'
p3392
sg12
S'allampare'
p3393
sba(iparrot.Element
Verb
p3394
(dp3395
g10
S'mono'
p3396
sg12
S'allegorizzare'
p3397
sba(iparrot.Element
Verb
p3398
(dp3399
g10
S'mono'
p3400
sg12
S'allidere'
p3401
sba(iparrot.Element
Verb
p3402
(dp3403
g10
S'mono'
p3404
sg12
S'allignare'
p3405
sba(iparrot.Element
Verb
p3406
(dp3407
g10
S'mono'
p3408
sg12
S'allitare'
p3409
sba(iparrot.Element
Verb
p3410
(dp3411
g10
S'mono'
p3412
sg12
S'alludere'
p3413
sba(iparrot.Element
Verb
p3414
(dp3415
g10
S'mono'
p3416
sg12
S'altire'
p3417
sba(iparrot.Element
Verb
p3418
(dp3419
g10
S'mono'
p3420
sg12
S'amarire'
p3421
sba(iparrot.Element
Verb
p3422
(dp3423
g10
S'mono'
p3424
sg12
S'amattare'
p3425
sba(iparrot.Element
Verb
p3426
(dp3427
g10
S'mono'
p3428
sg12
S'ambientare'
p3429
sba(iparrot.Element
Verb
p3430
(dp3431
g10
S'mono'
p3432
sg12
S'ambire'
p3433
sba(iparrot.Element
Verb
p3434
(dp3435
g10
S'mono'
p3436
sg12
S'ambulare'
p3437
sba(iparrot.Element
Verb
p3438
(dp3439
g10
S'mono'
p3440
sg12
S'amentare'
p3441
sba(iparrot.Element
Verb
p3442
(dp3443
g10
S'mono'
p3444
sg12
S'amicarsi'
p3445
sba(iparrot.Element
Verb
p3446
(dp3447
g10
S'mono'
p3448
sg12
S'ammalare'
p3449
sba(iparrot.Element
Verb
p3450
(dp3451
g10
S'mono'
p3452
sg12
S'ammalazzare'
p3453
sba(iparrot.Element
Verb
p3454
(dp3455
g10
S'mono'
p3456
sg12
S'ammarare'
p3457
sba(iparrot.Element
Verb
p3458
(dp3459
g10
S'mono'
p3460
sg12
S'ammattire'
p3461
sba(iparrot.Element
Verb
p3462
(dp3463
g10
S'mono'
p3464
sg12
S'ammirare'
p3465
sba(iparrot.Element
Verb
p3466
(dp3467
g10
S'mono'
p3468
sg12
S'ammontare'
p3469
sba(iparrot.Element
Verb
p3470
(dp3471
g10
S'mono'
p3472
sg12
S'ammottare'
p3473
sba(iparrot.Element
Verb
p3474
(dp3475
g10
S'mono'
p3476
sg12
S'ammuffire'
p3477
sba(iparrot.Element
Verb
p3478
(dp3479
g10
S'mono'
p3480
sg12
S'ammutire'
p3481
sba(iparrot.Element
Verb
p3482
(dp3483
g10
S'mono'
p3484
sg12
S'ammutolire'
p3485
sba(iparrot.Element
Verb
p3486
(dp3487
g10
S'mono'
p3488
sg12
S'amoreggiare'
p3489
sba(iparrot.Element
Verb
p3490
(dp3491
g10
S'mono'
p3492
sg12
S'ancheggiare'
p3493
sba(iparrot.Element
Verb
p3494
(dp3495
g10
S'mono'
p3496
sg12
S'andare'
p3497
sba(iparrot.Element
Verb
p3498
(dp3499
g10
S'mono'
p3500
sg12
S'annaspare'
p3501
sba(iparrot.Element
Verb
p3502
(dp3503
g10
S'mono'
p3504
sg12
S'annericare'
p3505
sba(iparrot.Element
Verb
p3506
(dp3507
g10
S'mono'
p3508
sg12
S'annuire'
p3509
sba(iparrot.Element
Verb
p3510
(dp3511
g10
S'mono'
p3512
sg12
S'ansimare'
p3513
sba(iparrot.Element
Verb
p3514
(dp3515
g10
S'mono'
p3516
sg12
S'anticipare'
p3517
sba(iparrot.Element
Verb
p3518
(dp3519
g10
S'mono'
p3520
sg12
S'aontare'
p3521
sba(iparrot.Element
Verb
p3522
(dp3523
g10
S'mono'
p3524
sg12
S'apostatare'
p3525
sba(iparrot.Element
Verb
p3526
(dp3527
g10
S'mono'
p3528
sg12
S'apostrofare'
p3529
sba(iparrot.Element
Verb
p3530
(dp3531
g10
S'mono'
p3532
sg12
S'apparire'
p3533
sba(iparrot.Element
Verb
p3534
(dp3535
g10
S'mono'
p3536
sg12
S'appartenere'
p3537
sba(iparrot.Element
Verb
p3538
(dp3539
g10
S'mono'
p3540
sg12
S'appiacere'
p3541
sba(iparrot.Element
Verb
p3542
(dp3543
g10
S'mono'
p3544
sg12
S'appigarire'
p3545
sba(iparrot.Element
Verb
p3546
(dp3547
g10
S'mono'
p3548
sg12
S'appigherare'
p3549
sba(iparrot.Element
Verb
p3550
(dp3551
g10
S'mono'
p3552
sg12
S'applanare'
p3553
sba(iparrot.Element
Verb
p3554
(dp3555
g10
S'mono'
p3556
sg12
S'apponere'
p3557
sba(iparrot.Element
Verb
p3558
(dp3559
g10
S'mono'
p3560
sg12
S'appressare'
p3561
sba(iparrot.Element
Verb
p3562
(dp3563
g10
S'mono'
p3564
sg12
S'approcciarsi'
p3565
sba(iparrot.Element
Verb
p3566
(dp3567
g10
S'mono'
p3568
sg12
S'approfittare'
p3569
sba(iparrot.Element
Verb
p3570
(dp3571
g10
S'mono'
p3572
sg12
S'appropinquare'
p3573
sba(iparrot.Element
Verb
p3574
(dp3575
g10
S'mono'
p3576
sg12
S'approvecciare'
p3577
sba(iparrot.Element
Verb
p3578
(dp3579
g10
S'mono'
p3580
sg12
S'apricare'
p3581
sba(iparrot.Element
Verb
p3582
(dp3583
g10
S'mono'
p3584
sg12
S'arbitrare'
p3585
sba(iparrot.Element
Verb
p3586
(dp3587
g10
S'mono'
p3588
sg12
S'ardere'
p3589
sba(iparrot.Element
Verb
p3590
(dp3591
g10
S'mono'
p3592
sg12
S'ardire'
p3593
sba(iparrot.Element
Verb
p3594
(dp3595
g10
S'mono'
p3596
sg12
S'argire'
p3597
sba(iparrot.Element
Verb
p3598
(dp3599
g10
S'mono'
p3600
sg12
S'armonizzare'
p3601
sba(iparrot.Element
Verb
p3602
(dp3603
g10
S'mono'
p3604
sg12
S'arpeggiare'
p3605
sba(iparrot.Element
Verb
p3606
(dp3607
g10
S'mono'
p3608
sg12
S'arrampicare'
p3609
sba(iparrot.Element
Verb
p3610
(dp3611
g10
S'mono'
p3612
sg12
S'arrazzare'
p3613
sba(iparrot.Element
Verb
p3614
(dp3615
g10
S'mono'
p3616
sg12
S'arretrare'
p3617
sba(iparrot.Element
Verb
p3618
(dp3619
g10
S'mono'
p3620
sg12
S'arricchire'
p3621
sba(iparrot.Element
Verb
p3622
(dp3623
g10
S'mono'
p3624
sg12
S'arridere'
p3625
sba(iparrot.Element
Verb
p3626
(dp3627
g10
S'mono'
p3628
sg12
S'arrivare'
p3629
sba(iparrot.Element
Verb
p3630
(dp3631
g10
S'mono'
p3632
sg12
S'arroccare'
p3633
sba(iparrot.Element
Verb
p3634
(dp3635
g10
S'mono'
p3636
sg12
S'arrogantare'
p3637
sba(iparrot.Element
Verb
p3638
(dp3639
g10
S'mono'
p3640
sg12
S'arrossire'
p3641
sba(iparrot.Element
Verb
p3642
(dp3643
g10
S'mono'
p3644
sg12
S'arzigogolare'
p3645
sba(iparrot.Element
Verb
p3646
(dp3647
g10
S'mono'
p3648
sg12
S'ascendere'
p3649
sba(iparrot.Element
Verb
p3650
(dp3651
g10
S'mono'
p3652
sg12
S'asciugare'
p3653
sba(iparrot.Element
Verb
p3654
(dp3655
g10
S'mono'
p3656
sg12
S'asprare'
p3657
sba(iparrot.Element
Verb
p3658
(dp3659
g10
S'mono'
p3660
sg12
S'assembrare'
p3661
sba(iparrot.Element
Verb
p3662
(dp3663
g10
S'mono'
p3664
sg12
S'assiderare'
p3665
sba(iparrot.Element
Verb
p3666
(dp3667
g10
S'mono'
p3668
sg12
S'assillare'
p3669
sba(iparrot.Element
Verb
p3670
(dp3671
g10
S'mono'
p3672
sg12
S'assistere'
p3673
sba(iparrot.Element
Verb
p3674
(dp3675
g10
S'mono'
p3676
sg12
S'assurgere'
p3677
sba(iparrot.Element
Verb
p3678
(dp3679
g10
S'mono'
p3680
sg12
S'asteggiare'
p3681
sba(iparrot.Element
Verb
p3682
(dp3683
g10
S'mono'
p3684
sg12
S'attagliare'
p3685
sba(iparrot.Element
Verb
p3686
(dp3687
g10
S'mono'
p3688
sg12
S'attendere'
p3689
sba(iparrot.Element
Verb
p3690
(dp3691
g10
S'mono'
p3692
sg12
S'attentare'
p3693
sba(iparrot.Element
Verb
p3694
(dp3695
g10
S'mono'
p3696
sg12
S'atterrare'
p3697
sba(iparrot.Element
Verb
p3698
(dp3699
g10
S'mono'
p3700
sg12
S'atterzare'
p3701
sba(iparrot.Element
Verb
p3702
(dp3703
g10
S'mono'
p3704
sg12
S'attraccare'
p3705
sba(iparrot.Element
Verb
p3706
(dp3707
g10
S'mono'
p3708
sg12
S'aulire'
p3709
sba(iparrot.Element
Verb
p3710
(dp3711
g10
S'mono'
p3712
sg12
S'aumentare'
p3713
sba(iparrot.Element
Verb
p3714
(dp3715
g10
S'mono'
p3716
sg12
S'ausare'
p3717
sba(iparrot.Element
Verb
p3718
(dp3719
g10
S'mono'
p3720
sg12
S'avanzare'
p3721
sba(iparrot.Element
Verb
p3722
(dp3723
g10
S'mono'
p3724
sg12
S'avvenire'
p3725
sba(iparrot.Element
Verb
p3726
(dp3727
g10
S'mono'
p3728
sg12
S'azzittire'
p3729
sba(iparrot.Element
Verb
p3730
(dp3731
g10
S'mono'
p3732
sg12
S'azzoppare'
p3733
sba(iparrot.Element
Verb
p3734
(dp3735
g10
S'mono'
p3736
sg12
S'azzoppire'
p3737
sba(iparrot.Element
Verb
p3738
(dp3739
g10
S'mono'
p3740
sg12
S'azzurreggiare'
p3741
sba(iparrot.Element
Verb
p3742
(dp3743
g10
S'mono'
p3744
sg12
S'baccagliare'
p3745
sba(iparrot.Element
Verb
p3746
(dp3747
g10
S'mono'
p3748
sg12
S'baccare'
p3749
sba(iparrot.Element
Verb
p3750
(dp3751
g10
S'mono'
p3752
sg12
S'badaluccare'
p3753
sba(iparrot.Element
Verb
p3754
(dp3755
g10
S'mono'
p3756
sg12
S'badare'
p3757
sba(iparrot.Element
Verb
p3758
(dp3759
g10
S'mono'
p3760
sg12
S'ballare'
p3761
sba(iparrot.Element
Verb
p3762
(dp3763
g10
S'mono'
p3764
sg12
S'baluginare'
p3765
sba(iparrot.Element
Verb
p3766
(dp3767
g10
S'mono'
p3768
sg12
S'balzare'
p3769
sba(iparrot.Element
Verb
p3770
(dp3771
g10
S'mono'
p3772
sg12
S'barare'
p3773
sba(iparrot.Element
Verb
p3774
(dp3775
g10
S'mono'
p3776
sg12
S'barrire'
p3777
sba(iparrot.Element
Verb
p3778
(dp3779
g10
S'mono'
p3780
sg12
S'bastare'
p3781
sba(iparrot.Element
Verb
p3782
(dp3783
g10
S'mono'
p3784
sg12
S'battere'
p3785
sba(iparrot.Element
Verb
p3786
(dp3787
g10
S'mono'
p3788
sg12
S'bazzicare'
p3789
sba(iparrot.Element
Verb
p3790
(dp3791
g10
S'mono'
p3792
sg12
S'beccheggiare'
p3793
sba(iparrot.Element
Verb
p3794
(dp3795
g10
S'mono'
p3796
sg12
S'belare'
p3797
sba(iparrot.Element
Verb
p3798
(dp3799
g10
S'mono'
p3800
sg12
S'berciare'
p3801
sba(iparrot.Element
Verb
p3802
(dp3803
g10
S'mono'
p3804
sg12
S'bestemmiare'
p3805
sba(iparrot.Element
Verb
p3806
(dp3807
g10
S'mono'
p3808
sg12
S'bighellonare'
p3809
sba(iparrot.Element
Verb
p3810
(dp3811
g10
S'mono'
p3812
sg12
S'bisbigliare'
p3813
sba(iparrot.Element
Verb
p3814
(dp3815
g10
S'mono'
p3816
sg12
S'bisbocciare'
p3817
sba(iparrot.Element
Verb
p3818
(dp3819
g10
S'mono'
p3820
sg12
S'bisognare'
p3821
sba(iparrot.Element
Verb
p3822
(dp3823
g10
S'mono'
p3824
sg12
S'bisticciare'
p3825
sba(iparrot.Element
Verb
p3826
(dp3827
g10
S'mono'
p3828
sg12
S'bivaccare'
p3829
sba(iparrot.Element
Verb
p3830
(dp3831
g10
S'mono'
p3832
sg12
S'blaterare'
p3833
sba(iparrot.Element
Verb
p3834
(dp3835
g10
S'mono'
p3836
sg12
S'bluffare'
p3837
sba(iparrot.Element
Verb
p3838
(dp3839
g10
S'mono'
p3840
sg12
S'boccheggiare'
p3841
sba(iparrot.Element
Verb
p3842
(dp3843
g10
S'mono'
p3844
sg12
S'bollare'
p3845
sba(iparrot.Element
Verb
p3846
(dp3847
g10
S'mono'
p3848
sg12
S'bollire'
p3849
sba(iparrot.Element
Verb
p3850
(dp3851
g10
S'mono'
p3852
sg12
S'bombire'
p3853
sba(iparrot.Element
Verb
p3854
(dp3855
g10
S'mono'
p3856
sg12
S'borbottare'
p3857
sba(iparrot.Element
Verb
p3858
(dp3859
g10
S'mono'
p3860
sg12
S'bramire'
p3861
sba(iparrot.Element
Verb
p3862
(dp3863
g10
S'mono'
p3864
sg12
S'brancolare'
p3865
sba(iparrot.Element
Verb
p3866
(dp3867
g10
S'mono'
p3868
sg12
S'brandire'
p3869
sba(iparrot.Element
Verb
p3870
(dp3871
g10
S'mono'
p3872
sg12
S'brulicare'
p3873
sba(iparrot.Element
Verb
p3874
(dp3875
g10
S'mono'
p3876
sg12
S'cacare'
p3877
sba(iparrot.Element
Verb
p3878
(dp3879
g10
S'mono'
p3880
sg12
S'cachinnare'
p3881
sba(iparrot.Element
Verb
p3882
(dp3883
g10
S'mono'
p3884
sg12
S'cadere'
p3885
sba(iparrot.Element
Verb
p3886
(dp3887
g10
S'mono'
p3888
sg12
S'calare'
p3889
sba(iparrot.Element
Verb
p3890
(dp3891
g10
S'mono'
p3892
sg12
S'calciare'
p3893
sba(iparrot.Element
Verb
p3894
(dp3895
g10
S'mono'
p3896
sg12
S'camminare'
p3897
sba(iparrot.Element
Verb
p3898
(dp3899
g10
S'mono'
p3900
sg12
S'cantare'
p3901
sba(iparrot.Element
Verb
p3902
(dp3903
g10
S'mono'
p3904
sg12
S'capitare'
p3905
sba(iparrot.Element
Verb
p3906
(dp3907
g10
S'mono'
p3908
sg12
S'capitolare'
p3909
sba(iparrot.Element
Verb
p3910
(dp3911
g10
S'mono'
p3912
sg12
S'cavalcare'
p3913
sba(iparrot.Element
Verb
p3914
(dp3915
g10
S'mono'
p3916
sg12
S'cavillare'
p3917
sba(iparrot.Element
Verb
p3918
(dp3919
g10
S'mono'
p3920
sg12
S'cedere'
p3921
sba(iparrot.Element
Verb
p3922
(dp3923
g10
S'mono'
p3924
sg12
S'celiare'
p3925
sba(iparrot.Element
Verb
p3926
(dp3927
g10
S'mono'
p3928
sg12
S'cenare'
p3929
sba(iparrot.Element
Verb
p3930
(dp3931
g10
S'mono'
p3932
sg12
S'cessare'
p3933
sba(iparrot.Element
Verb
p3934
(dp3935
g10
S'mono'
p3936
sg12
S'chattare'
p3937
sba(iparrot.Element
Verb
p3938
(dp3939
g10
S'mono'
p3940
sg12
S'chiacchierare'
p3941
sba(iparrot.Element
Verb
p3942
(dp3943
g10
S'mono'
p3944
sg12
S'chiavare'
p3945
sba(iparrot.Element
Verb
p3946
(dp3947
g10
S'mono'
p3948
sg12
S'chiudere'
p3949
sba(iparrot.Element
Verb
p3950
(dp3951
g10
S'mono'
p3952
sg12
S'ciancicare'
p3953
sba(iparrot.Element
Verb
p3954
(dp3955
g10
S'mono'
p3956
sg12
S'ciangottare'
p3957
sba(iparrot.Element
Verb
p3958
(dp3959
g10
S'mono'
p3960
sg12
S'ciarlare'
p3961
sba(iparrot.Element
Verb
p3962
(dp3963
g10
S'mono'
p3964
sg12
S'cincischiare'
p3965
sba(iparrot.Element
Verb
p3966
(dp3967
g10
S'mono'
p3968
sg12
S'circolare'
p3969
sba(iparrot.Element
Verb
p3970
(dp3971
g10
S'mono'
p3972
sg12
S'civettare'
p3973
sba(iparrot.Element
Verb
p3974
(dp3975
g10
S'mono'
p3976
sg12
S'clacsonare'
p3977
sba(iparrot.Element
Verb
p3978
(dp3979
g10
S'mono'
p3980
sg12
S'cliccare'
p3981
sba(iparrot.Element
Verb
p3982
(dp3983
g10
S'mono'
p3984
sg12
S'coabitare'
p3985
sba(iparrot.Element
Verb
p3986
(dp3987
g10
S'mono'
p3988
sg12
S'coesistere'
p3989
sba(iparrot.Element
Verb
p3990
(dp3991
g10
S'mono'
p3992
sg12
S'collaborare'
p3993
sba(iparrot.Element
Verb
p3994
(dp3995
g10
S'mono'
p3996
sg12
S'collassare'
p3997
sba(iparrot.Element
Verb
p3998
(dp3999
g10
S'mono'
p4000
sg12
S'collimare'
p4001
sba(iparrot.Element
Verb
p4002
(dp4003
g10
S'mono'
p4004
sg12
S'colloquiare'
p4005
sba(iparrot.Element
Verb
p4006
(dp4007
g10
S'mono'
p4008
sg12
S'combattere'
p4009
sba(iparrot.Element
Verb
p4010
(dp4011
g10
S'mono'
p4012
sg12
S'competere'
p4013
sba(iparrot.Element
Verb
p4014
(dp4015
g10
S'mono'
p4016
sg12
S'complottare'
p4017
sba(iparrot.Element
Verb
p4018
(dp4019
g10
S'mono'
p4020
sg12
S'concordare'
p4021
sba(iparrot.Element
Verb
p4022
(dp4023
g10
S'mono'
p4024
sg12
S'concorrere'
p4025
sba(iparrot.Element
Verb
p4026
(dp4027
g10
S'mono'
p4028
sg12
S'condiscendere'
p4029
sba(iparrot.Element
Verb
p4030
(dp4031
g10
S'mono'
p4032
sg12
S'conferire'
p4033
sba(iparrot.Element
Verb
p4034
(dp4035
g10
S'mono'
p4036
sg12
S'confidare'
p4037
sba(iparrot.Element
Verb
p4038
(dp4039
g10
S'mono'
p4040
sg12
S'confinare'
p4041
sba(iparrot.Element
Verb
p4042
(dp4043
g10
S'mono'
p4044
sg12
S'conflagrare'
p4045
sba(iparrot.Element
Verb
p4046
(dp4047
g10
S'mono'
p4048
sg12
S'confliggere'
p4049
sba(iparrot.Element
Verb
p4050
(dp4051
g10
S'mono'
p4052
sg12
S'confluire'
p4053
sba(iparrot.Element
Verb
p4054
(dp4055
g10
S'mono'
p4056
sg12
S'congetturare'
p4057
sba(iparrot.Element
Verb
p4058
(dp4059
g10
S'mono'
p4060
sg12
S'conseguire'
p4061
sba(iparrot.Element
Verb
p4062
(dp4063
g10
S'mono'
p4064
sg12
S'consentire'
p4065
sba(iparrot.Element
Verb
p4066
(dp4067
g10
S'mono'
p4068
sg12
S'consistere'
p4069
sba(iparrot.Element
Verb
p4070
(dp4071
g10
S'mono'
p4072
sg12
S'contare'
p4073
sba(iparrot.Element
Verb
p4074
(dp4075
g10
S'mono'
p4076
sg12
S'contendere'
p4077
sba(iparrot.Element
Verb
p4078
(dp4079
g10
S'mono'
p4080
sg12
S'continuare'
p4081
sba(iparrot.Element
Verb
p4082
(dp4083
g10
S'mono'
p4084
sg12
S'contribuire'
p4085
sba(iparrot.Element
Verb
p4086
(dp4087
g10
S'mono'
p4088
sg12
S'convergere'
p4089
sba(iparrot.Element
Verb
p4090
(dp4091
g10
S'mono'
p4092
sg12
S'conversare'
p4093
sba(iparrot.Element
Verb
p4094
(dp4095
g10
S'mono'
p4096
sg12
S'convivere'
p4097
sba(iparrot.Element
Verb
p4098
(dp4099
g10
S'mono'
p4100
sg12
S'correre'
p4101
sba(iparrot.Element
Verb
p4102
(dp4103
g10
S'mono'
p4104
sg12
S'corrispondere'
p4105
sba(iparrot.Element
Verb
p4106
(dp4107
g10
S'mono'
p4108
sg12
S'corruscare'
p4109
sba(iparrot.Element
Verb
p4110
(dp4111
g10
S'mono'
p4112
sg12
S'coruscare'
p4113
sba(iparrot.Element
Verb
p4114
(dp4115
g10
S'mono'
p4116
sg12
S'cosare'
p4117
sba(iparrot.Element
Verb
p4118
(dp4119
g10
S'mono'
p4120
sg12
S'cospirare'
p4121
sba(iparrot.Element
Verb
p4122
(dp4123
g10
S'mono'
p4124
sg12
S'costare'
p4125
sba(iparrot.Element
Verb
p4126
(dp4127
g10
S'mono'
p4128
sg12
S'cozzare'
p4129
sba(iparrot.Element
Verb
p4130
(dp4131
g10
S'mono'
p4132
sg12
S'credere'
p4133
sba(iparrot.Element
Verb
p4134
(dp4135
g10
S'mono'
p4136
sg12
S'crescere'
p4137
sba(iparrot.Element
Verb
p4138
(dp4139
g10
S'mono'
p4140
sg12
S'cuocere'
p4141
sba(iparrot.Element
Verb
p4142
(dp4143
g10
S'mono'
p4144
sg12
S'danzare'
p4145
sba(iparrot.Element
Verb
p4146
(dp4147
g10
S'mono'
p4148
sg12
S'datare'
p4149
sba(iparrot.Element
Verb
p4150
(dp4151
g10
S'mono'
p4152
sg12
S'deambulare'
p4153
sba(iparrot.Element
Verb
p4154
(dp4155
g10
S'mono'
p4156
sg12
S'debordare'
p4157
sba(iparrot.Element
Verb
p4158
(dp4159
g10
S'mono'
p4160
sg12
S'decadere'
p4161
sba(iparrot.Element
Verb
p4162
(dp4163
g10
S'mono'
p4164
sg12
S'decedere'
p4165
sba(iparrot.Element
Verb
p4166
(dp4167
g10
S'mono'
p4168
sg12
S'decidere'
p4169
sba(iparrot.Element
Verb
p4170
(dp4171
g10
S'mono'
p4172
sg12
S'decollare'
p4173
sba(iparrot.Element
Verb
p4174
(dp4175
g10
S'mono'
p4176
sg12
S'defecare'
p4177
sba(iparrot.Element
Verb
p4178
(dp4179
g10
S'mono'
p4180
sg12
S'deferire'
p4181
sba(iparrot.Element
Verb
p4182
(dp4183
g10
S'mono'
p4184
sg12
S'deflagrare'
p4185
sba(iparrot.Element
Verb
p4186
(dp4187
g10
S'mono'
p4188
sg12
S'defungere'
p4189
sba(iparrot.Element
Verb
p4190
(dp4191
g10
S'mono'
p4192
sg12
S'delinquere'
p4193
sba(iparrot.Element
Verb
p4194
(dp4195
g10
S'mono'
p4196
sg12
S'delirare'
p4197
sba(iparrot.Element
Verb
p4198
(dp4199
g10
S'mono'
p4200
sg12
S'democratizzare'
p4201
sba(iparrot.Element
Verb
p4202
(dp4203
g10
S'mono'
p4204
sg12
S'demordere'
p4205
sba(iparrot.Element
Verb
p4206
(dp4207
g10
S'mono'
p4208
sg12
S'deperire'
p4209
sba(iparrot.Element
Verb
p4210
(dp4211
g10
S'mono'
p4212
sg12
S'deragliare'
p4213
sba(iparrot.Element
Verb
p4214
(dp4215
g10
S'mono'
p4216
sg12
S'derivare'
p4217
sba(iparrot.Element
Verb
p4218
(dp4219
g10
S'mono'
p4220
sg12
S'desinare'
p4221
sba(iparrot.Element
Verb
p4222
(dp4223
g10
S'mono'
p4224
sg12
S'desistere'
p4225
sba(iparrot.Element
Verb
p4226
(dp4227
g10
S'mono'
p4228
sg12
S'deviare'
p4229
sba(iparrot.Element
Verb
p4230
(dp4231
g10
S'mono'
p4232
sg12
S'dialogare'
p4233
sba(iparrot.Element
Verb
p4234
(dp4235
g10
S'mono'
p4236
sg12
S'dichinare'
p4237
sba(iparrot.Element
Verb
p4238
(dp4239
g10
S'mono'
p4240
sg12
S'differire'
p4241
sba(iparrot.Element
Verb
p4242
(dp4243
g10
S'mono'
p4244
sg12
S'diffidare'
p4245
sba(iparrot.Element
Verb
p4246
(dp4247
g10
S'mono'
p4248
sg12
S'digredire'
p4249
sba(iparrot.Element
Verb
p4250
(dp4251
g10
S'mono'
p4252
sg12
S'dimagrire'
p4253
sba(iparrot.Element
Verb
p4254
(dp4255
g10
S'mono'
p4256
sg12
S'diminuire'
p4257
sba(iparrot.Element
Verb
p4258
(dp4259
g10
S'mono'
p4260
sg12
S'dimoiare'
p4261
sba(iparrot.Element
Verb
p4262
(dp4263
g10
S'mono'
p4264
sg12
S'dimostrare'
p4265
sba(iparrot.Element
Verb
p4266
(dp4267
g10
S'mono'
p4268
sg12
S'dipendere'
p4269
sba(iparrot.Element
Verb
p4270
(dp4271
g10
S'mono'
p4272
sg12
S'diradare'
p4273
sba(iparrot.Element
Verb
p4274
(dp4275
g10
S'mono'
p4276
sg12
S'disamorare'
p4277
sba(iparrot.Element
Verb
p4278
(dp4279
g10
S'mono'
p4280
sg12
S'disapparire'
p4281
sba(iparrot.Element
Verb
p4282
(dp4283
g10
S'mono'
p4284
sg12
S'discendere'
p4285
sba(iparrot.Element
Verb
p4286
(dp4287
g10
S'mono'
p4288
sg12
S'discettare'
p4289
sba(iparrot.Element
Verb
p4290
(dp4291
g10
S'mono'
p4292
sg12
S'disobbedire'
p4293
sba(iparrot.Element
Verb
p4294
(dp4295
g10
S'mono'
p4296
sg12
S'disperare'
p4297
sba(iparrot.Element
Verb
p4298
(dp4299
g10
S'mono'
p4300
sg12
S'dispiacere'
p4301
sba(iparrot.Element
Verb
p4302
(dp4303
g10
S'mono'
p4304
sg12
S'disporre'
p4305
sba(iparrot.Element
Verb
p4306
(dp4307
g10
S'mono'
p4308
sg12
S'disquisire'
p4309
sba(iparrot.Element
Verb
p4310
(dp4311
g10
S'mono'
p4312
sg12
S'dissertare'
p4313
sba(iparrot.Element
Verb
p4314
(dp4315
g10
S'mono'
p4316
sg12
S'divenire'
p4317
sba(iparrot.Element
Verb
p4318
(dp4319
g10
S'mono'
p4320
sg12
S'diventare'
p4321
sba(iparrot.Element
Verb
p4322
(dp4323
g10
S'mono'
p4324
sg12
S'divergere'
p4325
sba(iparrot.Element
Verb
p4326
(dp4327
g10
S'mono'
p4328
sg12
S'domandare'
p4329
sba(iparrot.Element
Verb
p4330
(dp4331
g10
S'mono'
p4332
sg12
S'dormire'
p4333
sba(iparrot.Element
Verb
p4334
(dp4335
g10
S'mono'
p4336
sg12
S'dovere'
p4337
sba(iparrot.Element
Verb
p4338
(dp4339
g10
S'mono'
p4340
sg12
S'dribblare'
p4341
sba(iparrot.Element
Verb
p4342
(dp4343
g10
S'mono'
p4344
sg12
S'dubitare'
p4345
sba(iparrot.Element
Verb
p4346
(dp4347
g10
S'mono'
p4348
sg12
S'durare'
p4349
sba(iparrot.Element
Verb
p4350
(dp4351
g10
S'mono'
p4352
sg12
S'eccedere'
p4353
sba(iparrot.Element
Verb
p4354
(dp4355
g10
S'mono'
p4356
sg12
S'eccellere'
p4357
sba(iparrot.Element
Verb
p4358
(dp4359
g10
S'mono'
p4360
sg12
S'effondere'
p4361
sba(iparrot.Element
Verb
p4362
(dp4363
g10
S'mono'
p4364
sg12
S'eiaculare'
p4365
sba(iparrot.Element
Verb
p4366
(dp4367
g10
S'mono'
p4368
sg12
S'emanare'
p4369
sba(iparrot.Element
Verb
p4370
(dp4371
g10
S'mono'
p4372
sg12
S'emergere'
p4373
sba(iparrot.Element
Verb
p4374
(dp4375
g10
S'mono'
p4376
sg12
S'emigrare'
p4377
sba(iparrot.Element
Verb
p4378
(dp4379
g10
S'mono'
p4380
sg12
S'empire'
p4381
sba(iparrot.Element
Verb
p4382
(dp4383
g10
S'mono'
p4384
sg12
S'entrare'
p4385
sba(iparrot.Element
Verb
p4386
(dp4387
g10
S'mono'
p4388
sg12
S'errare'
p4389
sba(iparrot.Element
Verb
p4390
(dp4391
g10
S'mono'
p4392
sg12
S'eruttare'
p4393
sba(iparrot.Element
Verb
p4394
(dp4395
g10
S'mono'
p4396
sg12
S'esagerare'
p4397
sba(iparrot.Element
Verb
p4398
(dp4399
g10
S'mono'
p4400
sg12
S'esistere'
p4401
sba(iparrot.Element
Verb
p4402
(dp4403
g10
S'mono'
p4404
sg12
S'esitare'
p4405
sba(iparrot.Element
Verb
p4406
(dp4407
g10
S'mono'
p4408
sg12
S'esordire'
p4409
sba(iparrot.Element
Verb
p4410
(dp4411
g10
S'mono'
p4412
sg12
S'espatriare'
p4413
sba(iparrot.Element
Verb
p4414
(dp4415
g10
S'mono'
p4416
sg12
S'espirare'
p4417
sba(iparrot.Element
Verb
p4418
(dp4419
g10
S'mono'
p4420
sg12
S'esplodere'
p4421
sba(iparrot.Element
Verb
p4422
(dp4423
g10
S'mono'
p4424
sg12
S'essere'
p4425
sba(iparrot.Element
Verb
p4426
(dp4427
g10
S'mono'
p4428
sg12
S'esservi'
p4429
sba(iparrot.Element
Verb
p4430
(dp4431
g10
S'mono'
p4432
sg12
S'esultare'
p4433
sba(iparrot.Element
Verb
p4434
(dp4435
g10
S'mono'
p4436
sg12
S'evacuare'
p4437
sba(iparrot.Element
Verb
p4438
(dp4439
g10
S'mono'
p4440
sg12
S'evadere'
p4441
sba(iparrot.Element
Verb
p4442
(dp4443
g10
S'mono'
p4444
sg12
S'evaporare'
p4445
sba(iparrot.Element
Verb
p4446
(dp4447
g10
S'mono'
p4448
sg12
S'fallare'
p4449
sba(iparrot.Element
Verb
p4450
(dp4451
g10
S'mono'
p4452
sg12
S'fallire'
p4453
sba(iparrot.Element
Verb
p4454
(dp4455
g10
S'mono'
p4456
sg12
S'fare la fica'
p4457
sba(iparrot.Element
Verb
p4458
(dp4459
g10
S'mono'
p4460
sg12
S'favillare'
p4461
sba(iparrot.Element
Verb
p4462
(dp4463
g10
S'mono'
p4464
sg12
S'fermentare'
p4465
sba(iparrot.Element
Verb
p4466
(dp4467
g10
S'mono'
p4468
sg12
S'fervere'
p4469
sba(iparrot.Element
Verb
p4470
(dp4471
g10
S'mono'
p4472
sg12
S'fiatare'
p4473
sba(iparrot.Element
Verb
p4474
(dp4475
g10
S'mono'
p4476
sg12
S'fibrillare'
p4477
sba(iparrot.Element
Verb
p4478
(dp4479
g10
S'mono'
p4480
sg12
S'fidare'
p4481
sba(iparrot.Element
Verb
p4482
(dp4483
g10
S'mono'
p4484
sg12
S'figurare'
p4485
sba(iparrot.Element
Verb
p4486
(dp4487
g10
S'mono'
p4488
sg12
S'filare'
p4489
sba(iparrot.Element
Verb
p4490
(dp4491
g10
S'mono'
p4492
sg12
S'filosofare'
p4493
sba(iparrot.Element
Verb
p4494
(dp4495
g10
S'mono'
p4496
sg12
S'filosofeggiare'
p4497
sba(iparrot.Element
Verb
p4498
(dp4499
g10
S'mono'
p4500
sg12
S'filtrare'
p4501
sba(iparrot.Element
Verb
p4502
(dp4503
g10
S'mono'
p4504
sg12
S'fioccare'
p4505
sba(iparrot.Element
Verb
p4506
(dp4507
g10
S'mono'
p4508
sg12
S'fiorare'
p4509
sba(iparrot.Element
Verb
p4510
(dp4511
g10
S'mono'
p4512
sg12
S'fiorettare'
p4513
sba(iparrot.Element
Verb
p4514
(dp4515
g10
S'mono'
p4516
sg12
S'fiorire'
p4517
sba(iparrot.Element
Verb
p4518
(dp4519
g10
S'mono'
p4520
sg12
S'fiscaleggiare'
p4521
sba(iparrot.Element
Verb
p4522
(dp4523
g10
S'mono'
p4524
sg12
S'fluire'
p4525
sba(iparrot.Element
Verb
p4526
(dp4527
g10
S'mono'
p4528
sg12
S'fluttuare'
p4529
sba(iparrot.Element
Verb
p4530
(dp4531
g10
S'mono'
p4532
sg12
S'folgorare'
p4533
sba(iparrot.Element
Verb
p4534
(dp4535
g10
S'mono'
p4536
sg12
S'formicolare'
p4537
sba(iparrot.Element
Verb
p4538
(dp4539
g10
S'mono'
p4540
sg12
S'fornicare'
p4541
sba(iparrot.Element
Verb
p4542
(dp4543
g10
S'mono'
p4544
sg12
S'franare'
p4545
sba(iparrot.Element
Verb
p4546
(dp4547
g10
S'mono'
p4548
sg12
S'fregarsene'
p4549
sba(iparrot.Element
Verb
p4550
(dp4551
g10
S'mono'
p4552
sg12
S'fremere'
p4553
sba(iparrot.Element
Verb
p4554
(dp4555
g10
S'mono'
p4556
sg12
S'frenare'
p4557
sba(iparrot.Element
Verb
p4558
(dp4559
g10
S'mono'
p4560
sg12
S'frinire'
p4561
sba(iparrot.Element
Verb
p4562
(dp4563
g10
S'mono'
p4564
sg12
S'frizionare'
p4565
sba(iparrot.Element
Verb
p4566
(dp4567
g10
S'mono'
p4568
sg12
S'frizzare'
p4569
sba(iparrot.Element
Verb
p4570
(dp4571
g10
S'mono'
p4572
sg12
S'frollare'
p4573
sba(iparrot.Element
Verb
p4574
(dp4575
g10
S'mono'
p4576
sg12
S'frugare'
p4577
sba(iparrot.Element
Verb
p4578
(dp4579
g10
S'mono'
p4580
sg12
S'frugolare'
p4581
sba(iparrot.Element
Verb
p4582
(dp4583
g10
S'mono'
p4584
sg12
S'fruire'
p4585
sba(iparrot.Element
Verb
p4586
(dp4587
g10
S'mono'
p4588
sg12
S'frullare'
p4589
sba(iparrot.Element
Verb
p4590
(dp4591
g10
S'mono'
p4592
sg12
S'fruttare'
p4593
sba(iparrot.Element
Verb
p4594
(dp4595
g10
S'mono'
p4596
sg12
S'fruttificare'
p4597
sba(iparrot.Element
Verb
p4598
(dp4599
g10
S'mono'
p4600
sg12
S'fuggire'
p4601
sba(iparrot.Element
Verb
p4602
(dp4603
g10
S'mono'
p4604
sg12
S'fulgere'
p4605
sba(iparrot.Element
Verb
p4606
(dp4607
g10
S'mono'
p4608
sg12
S'funzionare'
p4609
sba(iparrot.Element
Verb
p4610
(dp4611
g10
S'mono'
p4612
sg12
S'furfanteggiare'
p4613
sba(iparrot.Element
Verb
p4614
(dp4615
g10
S'mono'
p4616
sg12
S'f\xc3\xa9'
p4617
sba(iparrot.Element
Verb
p4618
(dp4619
g10
S'mono'
p4620
sg12
S'gallare'
p4621
sba(iparrot.Element
Verb
p4622
(dp4623
g10
S'mono'
p4624
sg12
S'galleggiare'
p4625
sba(iparrot.Element
Verb
p4626
(dp4627
g10
S'mono'
p4628
sg12
S'gannire'
p4629
sba(iparrot.Element
Verb
p4630
(dp4631
g10
S'mono'
p4632
sg12
S'gareggiare'
p4633
sba(iparrot.Element
Verb
p4634
(dp4635
g10
S'mono'
p4636
sg12
S'garrire'
p4637
sba(iparrot.Element
Verb
p4638
(dp4639
g10
S'mono'
p4640
sg12
S'gattonare'
p4641
sba(iparrot.Element
Verb
p4642
(dp4643
g10
S'mono'
p4644
sg12
S'gemere'
p4645
sba(iparrot.Element
Verb
p4646
(dp4647
g10
S'mono'
p4648
sg12
S'generalizzare'
p4649
sba(iparrot.Element
Verb
p4650
(dp4651
g10
S'mono'
p4652
sg12
S'germinare'
p4653
sba(iparrot.Element
Verb
p4654
(dp4655
g10
S'mono'
p4656
sg12
S'ghiacciare'
p4657
sba(iparrot.Element
Verb
p4658
(dp4659
g10
S'mono'
p4660
sg12
S'gigioneggiare'
p4661
sba(iparrot.Element
Verb
p4662
(dp4663
g10
S'mono'
p4664
sg12
S'giocare'
p4665
sba(iparrot.Element
Verb
p4666
(dp4667
g10
S'mono'
p4668
sg12
S'giocherellare'
p4669
sba(iparrot.Element
Verb
p4670
(dp4671
g10
S'mono'
p4672
sg12
S'gioire'
p4673
sba(iparrot.Element
Verb
p4674
(dp4675
g10
S'mono'
p4676
sg12
S'giovare'
p4677
sba(iparrot.Element
Verb
p4678
(dp4679
g10
S'mono'
p4680
sg12
S'girandolare'
p4681
sba(iparrot.Element
Verb
p4682
(dp4683
g10
S'mono'
p4684
sg12
S'girare'
p4685
sba(iparrot.Element
Verb
p4686
(dp4687
g10
S'mono'
p4688
sg12
S'gire'
p4689
sba(iparrot.Element
Verb
p4690
(dp4691
g10
S'mono'
p4692
sg12
S'girovagare'
p4693
sba(iparrot.Element
Verb
p4694
(dp4695
g10
S'mono'
p4696
sg12
S'giungere'
p4697
sba(iparrot.Element
Verb
p4698
(dp4699
g10
S'mono'
p4700
sg12
S'giurare'
p4701
sba(iparrot.Element
Verb
p4702
(dp4703
g10
S'mono'
p4704
sg12
S'glissare'
p4705
sba(iparrot.Element
Verb
p4706
(dp4707
g10
S'mono'
p4708
sg12
S'gloriarsi'
p4709
sba(iparrot.Element
Verb
p4710
(dp4711
g10
S'mono'
p4712
sg12
S'godere'
p4713
sba(iparrot.Element
Verb
p4714
(dp4715
g10
S'mono'
p4716
sg12
S'gorgheggiare'
p4717
sba(iparrot.Element
Verb
p4718
(dp4719
g10
S'mono'
p4720
sg12
S'gorgogliare'
p4721
sba(iparrot.Element
Verb
p4722
(dp4723
g10
S'mono'
p4724
sg12
S'governare'
p4725
sba(iparrot.Element
Verb
p4726
(dp4727
g10
S'mono'
p4728
sg12
S'gozzovigliare'
p4729
sba(iparrot.Element
Verb
p4730
(dp4731
g10
S'mono'
p4732
sg12
S'gracchiare'
p4733
sba(iparrot.Element
Verb
p4734
(dp4735
g10
S'mono'
p4736
sg12
S'gravare'
p4737
sba(iparrot.Element
Verb
p4738
(dp4739
g10
S'mono'
p4740
sg12
S'gravitare'
p4741
sba(iparrot.Element
Verb
p4742
(dp4743
g10
S'mono'
p4744
sg12
S'gridare'
p4745
sba(iparrot.Element
Verb
p4746
(dp4747
g10
S'mono'
p4748
sg12
S'grugnire'
p4749
sba(iparrot.Element
Verb
p4750
(dp4751
g10
S'mono'
p4752
sg12
S'guaire'
p4753
sba(iparrot.Element
Verb
p4754
(dp4755
g10
S'mono'
p4756
sg12
S'guardare'
p4757
sba(iparrot.Element
Verb
p4758
(dp4759
g10
S'mono'
p4760
sg12
S'gustare'
p4761
sba(iparrot.Element
Verb
p4762
(dp4763
g10
S'mono'
p4764
sg12
S'ibernare'
p4765
sba(iparrot.Element
Verb
p4766
(dp4767
g10
S'mono'
p4768
sg12
S'illividire'
p4769
sba(iparrot.Element
Verb
p4770
(dp4771
g10
S'mono'
p4772
sg12
S'imbestialire'
p4773
sba(iparrot.Element
Verb
p4774
(dp4775
g10
S'mono'
p4776
sg12
S'imbevere'
p4777
sba(iparrot.Element
Verb
p4778
(dp4779
g10
S'mono'
p4780
sg12
S'imbolsire'
p4781
sba(iparrot.Element
Verb
p4782
(dp4783
g10
S'mono'
p4784
sg12
S'imbrunire'
p4785
sba(iparrot.Element
Verb
p4786
(dp4787
g10
S'mono'
p4788
sg12
S'immigrare'
p4789
sba(iparrot.Element
Verb
p4790
(dp4791
g10
S'mono'
p4792
sg12
S'impallidire'
p4793
sba(iparrot.Element
Verb
p4794
(dp4795
g10
S'mono'
p4796
sg12
S'impaperarsi'
p4797
sba(iparrot.Element
Verb
p4798
(dp4799
g10
S'mono'
p4800
sg12
S'impattare'
p4801
sba(iparrot.Element
Verb
p4802
(dp4803
g10
S'mono'
p4804
sg12
S'impazzire'
p4805
sba(iparrot.Element
Verb
p4806
(dp4807
g10
S'mono'
p4808
sg12
S'imperare'
p4809
sba(iparrot.Element
Verb
p4810
(dp4811
g10
S'mono'
p4812
sg12
S'imperversare'
p4813
sba(iparrot.Element
Verb
p4814
(dp4815
g10
S'mono'
p4816
sg12
S'impetrare'
p4817
sba(iparrot.Element
Verb
p4818
(dp4819
g10
S'mono'
p4820
sg12
S'importare'
p4821
sba(iparrot.Element
Verb
p4822
(dp4823
g10
S'mono'
p4824
sg12
S'incalzare'
p4825
sba(iparrot.Element
Verb
p4826
(dp4827
g10
S'mono'
p4828
sg12
S'incedere'
p4829
sba(iparrot.Element
Verb
p4830
(dp4831
g10
S'mono'
p4832
sg12
S'incidere'
p4833
sba(iparrot.Element
Verb
p4834
(dp4835
g10
S'mono'
p4836
sg12
S'incingere'
p4837
sba(iparrot.Element
Verb
p4838
(dp4839
g10
S'mono'
p4840
sg12
S'inclinare'
p4841
sba(iparrot.Element
Verb
p4842
(dp4843
g10
S'mono'
p4844
sg12
S'incombere'
p4845
sba(iparrot.Element
Verb
p4846
(dp4847
g10
S'mono'
p4848
sg12
S'incrociare'
p4849
sba(iparrot.Element
Verb
p4850
(dp4851
g10
S'mono'
p4852
sg12
S'indagare'
p4853
sba(iparrot.Element
Verb
p4854
(dp4855
g10
S'mono'
p4856
sg12
S'indulgere'
p4857
sba(iparrot.Element
Verb
p4858
(dp4859
g10
S'mono'
p4860
sg12
S'infierire'
p4861
sba(iparrot.Element
Verb
p4862
(dp4863
g10
S'mono'
p4864
sg12
S'ingranare'
p4865
sba(iparrot.Element
Verb
p4866
(dp4867
g10
S'mono'
p4868
sg12
S'ingroppare'
p4869
sba(iparrot.Element
Verb
p4870
(dp4871
g10
S'mono'
p4872
sg12
S'iniziare'
p4873
sba(iparrot.Element
Verb
p4874
(dp4875
g10
S'mono'
p4876
sg12
S'innervare'
p4877
sba(iparrot.Element
Verb
p4878
(dp4879
g10
S'mono'
p4880
sg12
S'inorgoglire'
p4881
sba(iparrot.Element
Verb
p4882
(dp4883
g10
S'mono'
p4884
sg12
S'inorridire'
p4885
sba(iparrot.Element
Verb
p4886
(dp4887
g10
S'mono'
p4888
sg12
S'inossare'
p4889
sba(iparrot.Element
Verb
p4890
(dp4891
g10
S'mono'
p4892
sg12
S'inquinare'
p4893
sba(iparrot.Element
Verb
p4894
(dp4895
g10
S'mono'
p4896
sg12
S'insalvatichire'
p4897
sba(iparrot.Element
Verb
p4898
(dp4899
g10
S'mono'
p4900
sg12
S'insanire'
p4901
sba(iparrot.Element
Verb
p4902
(dp4903
g10
S'mono'
p4904
sg12
S'insaporare'
p4905
sba(iparrot.Element
Verb
p4906
(dp4907
g10
S'mono'
p4908
sg12
S'insatanassare'
p4909
sba(iparrot.Element
Verb
p4910
(dp4911
g10
S'mono'
p4912
sg12
S'insatanassire'
p4913
sba(iparrot.Element
Verb
p4914
(dp4915
g10
S'mono'
p4916
sg12
S'inscurire'
p4917
sba(iparrot.Element
Verb
p4918
(dp4919
g10
S'mono'
p4920
sg12
S'insecchire'
p4921
sba(iparrot.Element
Verb
p4922
(dp4923
g10
S'mono'
p4924
sg12
S'inserpentire'
p4925
sba(iparrot.Element
Verb
p4926
(dp4927
g10
S'mono'
p4928
sg12
S'insistere'
p4929
sba(iparrot.Element
Verb
p4930
(dp4931
g10
S'mono'
p4932
sg12
S'insorgere'
p4933
sba(iparrot.Element
Verb
p4934
(dp4935
g10
S'mono'
p4936
sg12
S'insurgere'
p4937
sba(iparrot.Element
Verb
p4938
(dp4939
g10
S'mono'
p4940
sg12
S'intercorrere'
p4941
sba(iparrot.Element
Verb
p4942
(dp4943
g10
S'mono'
p4944
sg12
S'interloquire'
p4945
sba(iparrot.Element
Verb
p4946
(dp4947
g10
S'mono'
p4948
sg12
S'intervenire'
p4949
sba(iparrot.Element
Verb
p4950
(dp4951
g10
S'mono'
p4952
sg12
S'intrigare'
p4953
sba(iparrot.Element
Verb
p4954
(dp4955
g10
S'mono'
p4956
sg12
S'invecchiare'
p4957
sba(iparrot.Element
Verb
p4958
(dp4959
g10
S'mono'
p4960
sg12
S'inveire'
p4961
sba(iparrot.Element
Verb
p4962
(dp4963
g10
S'mono'
p4964
sg12
S'investigare'
p4965
sba(iparrot.Element
Verb
p4966
(dp4967
g10
S'mono'
p4968
sg12
S'inviperire'
p4969
sba(iparrot.Element
Verb
p4970
(dp4971
g10
S'mono'
p4972
sg12
S'ire'
p4973
sba(iparrot.Element
Verb
p4974
(dp4975
g10
S'mono'
p4976
sg12
S'irrompere'
p4977
sba(iparrot.Element
Verb
p4978
(dp4979
g10
S'mono'
p4980
sg12
S'italianeggiare'
p4981
sba(iparrot.Element
Verb
p4982
(dp4983
g10
S'mono'
p4984
sg12
S'jangle'
p4985
sba(iparrot.Element
Verb
p4986
(dp4987
g10
S'mono'
p4988
sg12
S'lacrimare'
p4989
sba(iparrot.Element
Verb
p4990
(dp4991
g10
S'mono'
p4992
sg12
S'languire'
p4993
sba(iparrot.Element
Verb
p4994
(dp4995
g10
S'mono'
p4996
sg12
S'latrare'
p4997
sba(iparrot.Element
Verb
p4998
(dp4999
g10
S'mono'
p5000
sg12
S'lavorare'
p5001
sba(iparrot.Element
Verb
p5002
(dp5003
g10
S'mono'
p5004
sg12
S'lesinare'
p5005
sba(iparrot.Element
Verb
p5006
(dp5007
g10
S'mono'
p5008
sg12
S'lievitare'
p5009
sba(iparrot.Element
Verb
p5010
(dp5011
g10
S'mono'
p5012
sg12
S'limonare'
p5013
sba(iparrot.Element
Verb
p5014
(dp5015
g10
S'mono'
p5016
sg12
S'litigare'
p5017
sba(iparrot.Element
Verb
p5018
(dp5019
g10
S'mono'
p5020
sg12
S'lottare'
p5021
sba(iparrot.Element
Verb
p5022
(dp5023
g10
S'mono'
p5024
sg12
S'luccicare'
p5025
sba(iparrot.Element
Verb
p5026
(dp5027
g10
S'mono'
p5028
sg12
S'macchiare'
p5029
sba(iparrot.Element
Verb
p5030
(dp5031
g10
S'mono'
p5032
sg12
S'malignare'
p5033
sba(iparrot.Element
Verb
p5034
(dp5035
g10
S'mono'
p5036
sg12
S'mallevare'
p5037
sba(iparrot.Element
Verb
p5038
(dp5039
g10
S'mono'
p5040
sg12
S'mancare'
p5041
sba(iparrot.Element
Verb
p5042
(dp5043
g10
S'mono'
p5044
sg12
S'manovrare'
p5045
sba(iparrot.Element
Verb
p5046
(dp5047
g10
S'mono'
p5048
sg12
S'maramaldeggiare'
p5049
sba(iparrot.Element
Verb
p5050
(dp5051
g10
S'mono'
p5052
sg12
S'martellare'
p5053
sba(iparrot.Element
Verb
p5054
(dp5055
g10
S'mono'
p5056
sg12
S'mediare'
p5057
sba(iparrot.Element
Verb
p5058
(dp5059
g10
S'mono'
p5060
sg12
S'meditare'
p5061
sba(iparrot.Element
Verb
p5062
(dp5063
g10
S'mono'
p5064
sg12
S'mendicare'
p5065
sba(iparrot.Element
Verb
p5066
(dp5067
g10
S'mono'
p5068
sg12
S'mentire'
p5069
sba(iparrot.Element
Verb
p5070
(dp5071
g10
S'mono'
p5072
sg12
S'mestruare'
p5073
sba(iparrot.Element
Verb
p5074
(dp5075
g10
S'mono'
p5076
sg12
S'miagolare'
p5077
sba(iparrot.Element
Verb
p5078
(dp5079
g10
S'mono'
p5080
sg12
S'miaulare'
p5081
sba(iparrot.Element
Verb
p5082
(dp5083
g10
S'mono'
p5084
sg12
S'migliorare'
p5085
sba(iparrot.Element
Verb
p5086
(dp5087
g10
S'mono'
p5088
sg12
S'militare'
p5089
sba(iparrot.Element
Verb
p5090
(dp5091
g10
S'mono'
p5092
sg12
S'montare'
p5093
sba(iparrot.Element
Verb
p5094
(dp5095
g10
S'mono'
p5096
sg12
S'morire'
p5097
sba(iparrot.Element
Verb
p5098
(dp5099
g10
S'mono'
p5100
sg12
S'mormorare'
p5101
sba(iparrot.Element
Verb
p5102
(dp5103
g10
S'mono'
p5104
sg12
S'mostrare'
p5105
sba(iparrot.Element
Verb
p5106
(dp5107
g10
S'mono'
p5108
sg12
S'muggire'
p5109
sba(iparrot.Element
Verb
p5110
(dp5111
g10
S'mono'
p5112
sg12
S'mugugnare'
p5113
sba(iparrot.Element
Verb
p5114
(dp5115
g10
S'mono'
p5116
sg12
S'mutare'
p5117
sba(iparrot.Element
Verb
p5118
(dp5119
g10
S'mono'
p5120
sg12
S'nascere'
p5121
sba(iparrot.Element
Verb
p5122
(dp5123
g10
S'mono'
p5124
sg12
S'natare'
p5125
sba(iparrot.Element
Verb
p5126
(dp5127
g10
S'mono'
p5128
sg12
S'naufragare'
p5129
sba(iparrot.Element
Verb
p5130
(dp5131
g10
S'mono'
p5132
sg12
S'navigare'
p5133
sba(iparrot.Element
Verb
p5134
(dp5135
g10
S'mono'
p5136
sg12
S'necessitare'
p5137
sba(iparrot.Element
Verb
p5138
(dp5139
g10
S'mono'
p5140
sg12
S'negoziare'
p5141
sba(iparrot.Element
Verb
p5142
(dp5143
g10
S'mono'
p5144
sg12
S'nevicare'
p5145
sba(iparrot.Element
Verb
p5146
(dp5147
g10
S'mono'
p5148
sg12
S'nicchiare'
p5149
sba(iparrot.Element
Verb
p5150
(dp5151
g10
S'mono'
p5152
sg12
S'nitrire'
p5153
sba(iparrot.Element
Verb
p5154
(dp5155
g10
S'mono'
p5156
sg12
S'nuocere'
p5157
sba(iparrot.Element
Verb
p5158
(dp5159
g10
S'mono'
p5160
sg12
S'nuotare'
p5161
sba(iparrot.Element
Verb
p5162
(dp5163
g10
S'mono'
p5164
sg12
S'obbedire'
p5165
sba(iparrot.Element
Verb
p5166
(dp5167
g10
S'mono'
p5168
sg12
S'occorrere'
p5169
sba(iparrot.Element
Verb
p5170
(dp5171
g10
S'mono'
p5172
sg12
S'opinare'
p5173
sba(iparrot.Element
Verb
p5174
(dp5175
g10
S'mono'
p5176
sg12
S'optare'
p5177
sba(iparrot.Element
Verb
p5178
(dp5179
g10
S'mono'
p5180
sg12
S'oracolare'
p5181
sba(iparrot.Element
Verb
p5182
(dp5183
g10
S'mono'
p5184
sg12
S'orzare'
p5185
sba(iparrot.Element
Verb
p5186
(dp5187
g10
S'mono'
p5188
sg12
S'oscillare'
p5189
sba(iparrot.Element
Verb
p5190
(dp5191
g10
S'mono'
p5192
sg12
S'ostare'
p5193
sba(iparrot.Element
Verb
p5194
(dp5195
g10
S'mono'
p5196
sg12
S'ostinare'
p5197
sba(iparrot.Element
Verb
p5198
(dp5199
g10
S'mono'
p5200
sg12
S'ottemperare'
p5201
sba(iparrot.Element
Verb
p5202
(dp5203
g10
S'mono'
p5204
sg12
S'oziare'
p5205
sba(iparrot.Element
Verb
p5206
(dp5207
g10
S'mono'
p5208
sg12
S'palpitare'
p5209
sba(iparrot.Element
Verb
p5210
(dp5211
g10
S'mono'
p5212
sg12
S'panificare'
p5213
sba(iparrot.Element
Verb
p5214
(dp5215
g10
S'mono'
p5216
sg12
S'parere'
p5217
sba(iparrot.Element
Verb
p5218
(dp5219
g10
S'mono'
p5220
sg12
S'parlamentare'
p5221
sba(iparrot.Element
Verb
p5222
(dp5223
g10
S'mono'
p5224
sg12
S'parlare'
p5225
sba(iparrot.Element
Verb
p5226
(dp5227
g10
S'mono'
p5228
sg12
S'partecipare'
p5229
sba(iparrot.Element
Verb
p5230
(dp5231
g10
S'mono'
p5232
sg12
S'partire'
p5233
sba(iparrot.Element
Verb
p5234
(dp5235
g10
S'mono'
p5236
sg12
S'pascere'
p5237
sba(iparrot.Element
Verb
p5238
(dp5239
g10
S'mono'
p5240
sg12
S'passare'
p5241
sba(iparrot.Element
Verb
p5242
(dp5243
g10
S'mono'
p5244
sg12
S'passeggiare'
p5245
sba(iparrot.Element
Verb
p5246
(dp5247
g10
S'mono'
p5248
sg12
S'patire'
p5249
sba(iparrot.Element
Verb
p5250
(dp5251
g10
S'mono'
p5252
sg12
S'pattinare'
p5253
sba(iparrot.Element
Verb
p5254
(dp5255
g10
S'mono'
p5256
sg12
S'pazientare'
p5257
sba(iparrot.Element
Verb
p5258
(dp5259
g10
S'mono'
p5260
sg12
S'peccare'
p5261
sba(iparrot.Element
Verb
p5262
(dp5263
g10
S'mono'
p5264
sg12
S'pedalare'
p5265
sba(iparrot.Element
Verb
p5266
(dp5267
g10
S'mono'
p5268
sg12
S'pedinare'
p5269
sba(iparrot.Element
Verb
p5270
(dp5271
g10
S'mono'
p5272
sg12
S'pencolare'
p5273
sba(iparrot.Element
Verb
p5274
(dp5275
g10
S'mono'
p5276
sg12
S'pendere'
p5277
sba(iparrot.Element
Verb
p5278
(dp5279
g10
S'mono'
p5280
sg12
S'pendolare'
p5281
sba(iparrot.Element
Verb
p5282
(dp5283
g10
S'mono'
p5284
sg12
S'penetrare'
p5285
sba(iparrot.Element
Verb
p5286
(dp5287
g10
S'mono'
p5288
sg12
S'pensare'
p5289
sba(iparrot.Element
Verb
p5290
(dp5291
g10
S'mono'
p5292
sg12
S'penzolare'
p5293
sba(iparrot.Element
Verb
p5294
(dp5295
g10
S'mono'
p5296
sg12
S'percolare'
p5297
sba(iparrot.Element
Verb
p5298
(dp5299
g10
S'mono'
p5300
sg12
S'perdurare'
p5301
sba(iparrot.Element
Verb
p5302
(dp5303
g10
S'mono'
p5304
sg12
S'perire'
p5305
sba(iparrot.Element
Verb
p5306
(dp5307
g10
S'mono'
p5308
sg12
S'perseverare'
p5309
sba(iparrot.Element
Verb
p5310
(dp5311
g10
S'mono'
p5312
sg12
S'persistere'
p5313
sba(iparrot.Element
Verb
p5314
(dp5315
g10
S'mono'
p5316
sg12
S'pertenere'
p5317
sba(iparrot.Element
Verb
p5318
(dp5319
g10
S'mono'
p5320
sg12
S'piacere'
p5321
sba(iparrot.Element
Verb
p5322
(dp5323
g10
S'mono'
p5324
sg12
S'piaggiare'
p5325
sba(iparrot.Element
Verb
p5326
(dp5327
g10
S'mono'
p5328
sg12
S'piangere'
p5329
sba(iparrot.Element
Verb
p5330
(dp5331
g10
S'mono'
p5332
sg12
S'pigliare'
p5333
sba(iparrot.Element
Verb
p5334
(dp5335
g10
S'mono'
p5336
sg12
S'pigolare'
p5337
sba(iparrot.Element
Verb
p5338
(dp5339
g10
S'mono'
p5340
sg12
S'piovere'
p5341
sba(iparrot.Element
Verb
p5342
(dp5343
g10
S'mono'
p5344
sg12
S'piovigginare'
p5345
sba(iparrot.Element
Verb
p5346
(dp5347
g10
S'mono'
p5348
sg12
S'pisciare'
p5349
sba(iparrot.Element
Verb
p5350
(dp5351
g10
S'mono'
p5352
sg12
S'pisolare'
p5353
sba(iparrot.Element
Verb
p5354
(dp5355
g10
S'mono'
p5356
sg12
S'pogare'
p5357
sba(iparrot.Element
Verb
p5358
(dp5359
g10
S'mono'
p5360
sg12
S'poggiare'
p5361
sba(iparrot.Element
Verb
p5362
(dp5363
g10
S'mono'
p5364
sg12
S'polemizzare'
p5365
sba(iparrot.Element
Verb
p5366
(dp5367
g10
S'mono'
p5368
sg12
S'poltrire'
p5369
sba(iparrot.Element
Verb
p5370
(dp5371
g10
S'mono'
p5372
sg12
S'pontificare'
p5373
sba(iparrot.Element
Verb
p5374
(dp5375
g10
S'mono'
p5376
sg12
S'ponzare'
p5377
sba(iparrot.Element
Verb
p5378
(dp5379
g10
S'mono'
p5380
sg12
S'porporeggiare'
p5381
sba(iparrot.Element
Verb
p5382
(dp5383
g10
S'mono'
p5384
sg12
S'posare'
p5385
sba(iparrot.Element
Verb
p5386
(dp5387
g10
S'mono'
p5388
sg12
S'potere'
p5389
sba(iparrot.Element
Verb
p5390
(dp5391
g10
S'mono'
p5392
sg12
S'pranzare'
p5393
sba(iparrot.Element
Verb
p5394
(dp5395
g10
S'mono'
p5396
sg12
S'precipitare'
p5397
sba(iparrot.Element
Verb
p5398
(dp5399
g10
S'mono'
p5400
sg12
S'precorrere'
p5401
sba(iparrot.Element
Verb
p5402
(dp5403
g10
S'mono'
p5404
sg12
S'preesistere'
p5405
sba(iparrot.Element
Verb
p5406
(dp5407
g10
S'mono'
p5408
sg12
S'pregare'
p5409
sba(iparrot.Element
Verb
p5410
(dp5411
g10
S'mono'
p5412
sg12
S'premere'
p5413
sba(iparrot.Element
Verb
p5414
(dp5415
g10
S'mono'
p5416
sg12
S'prescindere'
p5417
sba(iparrot.Element
Verb
p5418
(dp5419
g10
S'mono'
p5420
sg12
S'presenziare'
p5421
sba(iparrot.Element
Verb
p5422
(dp5423
g10
S'mono'
p5424
sg12
S'prevaricare'
p5425
sba(iparrot.Element
Verb
p5426
(dp5427
g10
S'mono'
p5428
sg12
S'prillare'
p5429
sba(iparrot.Element
Verb
p5430
(dp5431
g10
S'mono'
p5432
sg12
S'procedere'
p5433
sba(iparrot.Element
Verb
p5434
(dp5435
g10
S'mono'
p5436
sg12
S'profittare'
p5437
sba(iparrot.Element
Verb
p5438
(dp5439
g10
S'mono'
p5440
sg12
S'profumare'
p5441
sba(iparrot.Element
Verb
p5442
(dp5443
g10
S'mono'
p5444
sg12
S'protestare'
p5445
sba(iparrot.Element
Verb
p5446
(dp5447
g10
S'mono'
p5448
sg12
S'protrudere'
p5449
sba(iparrot.Element
Verb
p5450
(dp5451
g10
S'mono'
p5452
sg12
S'provenire'
p5453
sba(iparrot.Element
Verb
p5454
(dp5455
g10
S'mono'
p5456
sg12
S'provvedere'
p5457
sba(iparrot.Element
Verb
p5458
(dp5459
g10
S'mono'
p5460
sg12
S'pugnare'
p5461
sba(iparrot.Element
Verb
p5462
(dp5463
g10
S'mono'
p5464
sg12
S'pullulare'
p5465
sba(iparrot.Element
Verb
p5466
(dp5467
g10
S'mono'
p5468
sg12
S'pulsare'
p5469
sba(iparrot.Element
Verb
p5470
(dp5471
g10
S'mono'
p5472
sg12
S'puntare'
p5473
sba(iparrot.Element
Verb
p5474
(dp5475
g10
S'mono'
p5476
sg12
S'pusignare'
p5477
sba(iparrot.Element
Verb
p5478
(dp5479
g10
S'mono'
p5480
sg12
S'puzzare'
p5481
sba(iparrot.Element
Verb
p5482
(dp5483
g10
S'mono'
p5484
sg12
S'raggiare'
p5485
sba(iparrot.Element
Verb
p5486
(dp5487
g10
S'mono'
p5488
sg12
S'ragionare'
p5489
sba(iparrot.Element
Verb
p5490
(dp5491
g10
S'mono'
p5492
sg12
S'rampollare'
p5493
sba(iparrot.Element
Verb
p5494
(dp5495
g10
S'mono'
p5496
sg12
S'ravanare'
p5497
sba(iparrot.Element
Verb
p5498
(dp5499
g10
S'mono'
p5500
sg12
S'razzolare'
p5501
sba(iparrot.Element
Verb
p5502
(dp5503
g10
S'mono'
p5504
sg12
S'reagire'
p5505
sba(iparrot.Element
Verb
p5506
(dp5507
g10
S'mono'
p5508
sg12
S'recalcitrare'
p5509
sba(iparrot.Element
Verb
p5510
(dp5511
g10
S'mono'
p5512
sg12
S'recapitare'
p5513
sba(iparrot.Element
Verb
p5514
(dp5515
g10
S'mono'
p5516
sg12
S'reclamare'
p5517
sba(iparrot.Element
Verb
p5518
(dp5519
g10
S'mono'
p5520
sg12
S'reclinare'
p5521
sba(iparrot.Element
Verb
p5522
(dp5523
g10
S'mono'
p5524
sg12
S'recriminare'
p5525
sba(iparrot.Element
Verb
p5526
(dp5527
g10
S'mono'
p5528
sg12
S'redolere'
p5529
sba(iparrot.Element
Verb
p5530
(dp5531
g10
S'mono'
p5532
sg12
S'redolire'
p5533
sba(iparrot.Element
Verb
p5534
(dp5535
g10
S'mono'
p5536
sg12
S'refertare'
p5537
sba(iparrot.Element
Verb
p5538
(dp5539
g10
S'mono'
p5540
sg12
S'regatare'
p5541
sba(iparrot.Element
Verb
p5542
(dp5543
g10
S'mono'
p5544
sg12
S'reggere'
p5545
sba(iparrot.Element
Verb
p5546
(dp5547
g10
S'mono'
p5548
sg12
S'regnare'
p5549
sba(iparrot.Element
Verb
p5550
(dp5551
g10
S'mono'
p5552
sg12
S'regredire'
p5553
sba(iparrot.Element
Verb
p5554
(dp5555
g10
S'mono'
p5556
sg12
S'remare'
p5557
sba(iparrot.Element
Verb
p5558
(dp5559
g10
S'mono'
p5560
sg12
S'rendere'
p5561
sba(iparrot.Element
Verb
p5562
(dp5563
g10
S'mono'
p5564
sg12
S'resistere'
p5565
sba(iparrot.Element
Verb
p5566
(dp5567
g10
S'mono'
p5568
sg12
S'respirare'
p5569
sba(iparrot.Element
Verb
p5570
(dp5571
g10
S'mono'
p5572
sg12
S'restare'
p5573
sba(iparrot.Element
Verb
p5574
(dp5575
g10
S'mono'
p5576
sg12
S'ribollire'
p5577
sba(iparrot.Element
Verb
p5578
(dp5579
g10
S'mono'
p5580
sg12
S'ricalcitrare'
p5581
sba(iparrot.Element
Verb
p5582
(dp5583
g10
S'mono'
p5584
sg12
S'ricominciare'
p5585
sba(iparrot.Element
Verb
p5586
(dp5587
g10
S'mono'
p5588
sg12
S'ricorrere'
p5589
sba(iparrot.Element
Verb
p5590
(dp5591
g10
S'mono'
p5592
sg12
S'ridere'
p5593
sba(iparrot.Element
Verb
p5594
(dp5595
g10
S'mono'
p5596
sg12
S'rientrare'
p5597
sba(iparrot.Element
Verb
p5598
(dp5599
g10
S'mono'
p5600
sg12
S'rifinire'
p5601
sba(iparrot.Element
Verb
p5602
(dp5603
g10
S'mono'
p5604
sg12
S'rifuggire'
p5605
sba(iparrot.Element
Verb
p5606
(dp5607
g10
S'mono'
p5608
sg12
S'rigonfiare'
p5609
sba(iparrot.Element
Verb
p5610
(dp5611
g10
S'mono'
p5612
sg12
S'rigurgitare'
p5613
sba(iparrot.Element
Verb
p5614
(dp5615
g10
S'mono'
p5616
sg12
S'rilanciare'
p5617
sba(iparrot.Element
Verb
p5618
(dp5619
g10
S'mono'
p5620
sg12
S'rimanere'
p5621
sba(iparrot.Element
Verb
p5622
(dp5623
g10
S'mono'
p5624
sg12
S'rimbalzare'
p5625
sba(iparrot.Element
Verb
p5626
(dp5627
g10
S'mono'
p5628
sg12
S'rimbambire'
p5629
sba(iparrot.Element
Verb
p5630
(dp5631
g10
S'mono'
p5632
sg12
S'rimbecillire'
p5633
sba(iparrot.Element
Verb
p5634
(dp5635
g10
S'mono'
p5636
sg12
S'rimbombare'
p5637
sba(iparrot.Element
Verb
p5638
(dp5639
g10
S'mono'
p5640
sg12
S'rimboschire'
p5641
sba(iparrot.Element
Verb
p5642
(dp5643
g10
S'mono'
p5644
sg12
S'rimediare'
p5645
sba(iparrot.Element
Verb
p5646
(dp5647
g10
S'mono'
p5648
sg12
S'rimestare'
p5649
sba(iparrot.Element
Verb
p5650
(dp5651
g10
S'mono'
p5652
sg12
S'rimuginare'
p5653
sba(iparrot.Element
Verb
p5654
(dp5655
g10
S'mono'
p5656
sg12
S'rinascere'
p5657
sba(iparrot.Element
Verb
p5658
(dp5659
g10
S'mono'
p5660
sg12
S'rincrescere'
p5661
sba(iparrot.Element
Verb
p5662
(dp5663
g10
S'mono'
p5664
sg12
S'rinculare'
p5665
sba(iparrot.Element
Verb
p5666
(dp5667
g10
S'mono'
p5668
sg12
S'ringhiare'
p5669
sba(iparrot.Element
Verb
p5670
(dp5671
g10
S'mono'
p5672
sg12
S'rintanare'
p5673
sba(iparrot.Element
Verb
p5674
(dp5675
g10
S'mono'
p5676
sg12
S'rinunciare'
p5677
sba(iparrot.Element
Verb
p5678
(dp5679
g10
S'mono'
p5680
sg12
S'riparare'
p5681
sba(iparrot.Element
Verb
p5682
(dp5683
g10
S'mono'
p5684
sg12
S'riposare'
p5685
sba(iparrot.Element
Verb
p5686
(dp5687
g10
S'mono'
p5688
sg12
S'risalire'
p5689
sba(iparrot.Element
Verb
p5690
(dp5691
g10
S'mono'
p5692
sg12
S'rischiare'
p5693
sba(iparrot.Element
Verb
p5694
(dp5695
g10
S'mono'
p5696
sg12
S'risiedere'
p5697
sba(iparrot.Element
Verb
p5698
(dp5699
g10
S'mono'
p5700
sg12
S'risorgere'
p5701
sba(iparrot.Element
Verb
p5702
(dp5703
g10
S'mono'
p5704
sg12
S'risovvenire'
p5705
sba(iparrot.Element
Verb
p5706
(dp5707
g10
S'mono'
p5708
sg12
S'risuscitare'
p5709
sba(iparrot.Element
Verb
p5710
(dp5711
g10
S'mono'
p5712
sg12
S'ritardare'
p5713
sba(iparrot.Element
Verb
p5714
(dp5715
g10
S'mono'
p5716
sg12
S'ritornare'
p5717
sba(iparrot.Element
Verb
p5718
(dp5719
g10
S'mono'
p5720
sg12
S'riuscire'
p5721
sba(iparrot.Element
Verb
p5722
(dp5723
g10
S'mono'
p5724
sg12
S'rivaleggiare'
p5725
sba(iparrot.Element
Verb
p5726
(dp5727
g10
S'mono'
p5728
sg12
S'ronzare'
p5729
sba(iparrot.Element
Verb
p5730
(dp5731
g10
S'mono'
p5732
sg12
S'rotondeggiare'
p5733
sba(iparrot.Element
Verb
p5734
(dp5735
g10
S'mono'
p5736
sg12
S'ruggire'
p5737
sba(iparrot.Element
Verb
p5738
(dp5739
g10
S'mono'
p5740
sg12
S'russare'
p5741
sba(iparrot.Element
Verb
p5742
(dp5743
g10
S'mono'
p5744
sg12
S'ruttare'
p5745
sba(iparrot.Element
Verb
p5746
(dp5747
g10
S'mono'
p5748
sg12
S'ruzzare'
p5749
sba(iparrot.Element
Verb
p5750
(dp5751
g10
S'mono'
p5752
sg12
S'ruzzolare'
p5753
sba(iparrot.Element
Verb
p5754
(dp5755
g10
S'mono'
p5756
sg12
S'sacramentare'
p5757
sba(iparrot.Element
Verb
p5758
(dp5759
g10
S'mono'
p5760
sg12
S'salire'
p5761
sba(iparrot.Element
Verb
p5762
(dp5763
g10
S'mono'
p5764
sg12
S'salpare'
p5765
sba(iparrot.Element
Verb
p5766
(dp5767
g10
S'mono'
p5768
sg12
S'saltare'
p5769
sba(iparrot.Element
Verb
p5770
(dp5771
g10
S'mono'
p5772
sg12
S'sanguinare'
p5773
sba(iparrot.Element
Verb
p5774
(dp5775
g10
S'mono'
p5776
sg12
S'sapere'
p5777
sba(iparrot.Element
Verb
p5778
(dp5779
g10
S'mono'
p5780
sg12
S'sbadigliare'
p5781
sba(iparrot.Element
Verb
p5782
(dp5783
g10
S'mono'
p5784
sg12
S'sbalordire'
p5785
sba(iparrot.Element
Verb
p5786
(dp5787
g10
S'mono'
p5788
sg12
S'sbavare'
p5789
sba(iparrot.Element
Verb
p5790
(dp5791
g10
S'mono'
p5792
sg12
S'sbevazzare'
p5793
sba(iparrot.Element
Verb
p5794
(dp5795
g10
S'mono'
p5796
sg12
S'sbigottire'
p5797
sba(iparrot.Element
Verb
p5798
(dp5799
g10
S'mono'
p5800
sg12
S'sboccare'
p5801
sba(iparrot.Element
Verb
p5802
(dp5803
g10
S'mono'
p5804
sg12
S'sbocciare'
p5805
sba(iparrot.Element
Verb
p5806
(dp5807
g10
S'mono'
p5808
sg12
S'sbombare'
p5809
sba(iparrot.Element
Verb
p5810
(dp5811
g10
S'mono'
p5812
sg12
S'sborrare'
p5813
sba(iparrot.Element
Verb
p5814
(dp5815
g10
S'mono'
p5816
sg12
S'sbottare'
p5817
sba(iparrot.Element
Verb
p5818
(dp5819
g10
S'mono'
p5820
sg12
S'sbraitare'
p5821
sba(iparrot.Element
Verb
p5822
(dp5823
g10
S'mono'
p5824
sg12
S'sbuffare'
p5825
sba(iparrot.Element
Verb
p5826
(dp5827
g10
S'mono'
p5828
sg12
S'scadere'
p5829
sba(iparrot.Element
Verb
p5830
(dp5831
g10
S'mono'
p5832
sg12
S'scagazzare'
p5833
sba(iparrot.Element
Verb
p5834
(dp5835
g10
S'mono'
p5836
sg12
S'scalare'
p5837
sba(iparrot.Element
Verb
p5838
(dp5839
g10
S'mono'
p5840
sg12
S'scaldare'
p5841
sba(iparrot.Element
Verb
p5842
(dp5843
g10
S'mono'
p5844
sg12
S'scalpitare'
p5845
sba(iparrot.Element
Verb
p5846
(dp5847
g10
S'mono'
p5848
sg12
S'scampare'
p5849
sba(iparrot.Element
Verb
p5850
(dp5851
g10
S'mono'
p5852
sg12
S'scappare'
p5853
sba(iparrot.Element
Verb
p5854
(dp5855
g10
S'mono'
p5856
sg12
S'scarrucolare'
p5857
sba(iparrot.Element
Verb
p5858
(dp5859
g10
S'mono'
p5860
sg12
S'scarseggiare'
p5861
sba(iparrot.Element
Verb
p5862
(dp5863
g10
S'mono'
p5864
sg12
S'scaturire'
p5865
sba(iparrot.Element
Verb
p5866
(dp5867
g10
S'mono'
p5868
sg12
S'scavalcare'
p5869
sba(iparrot.Element
Verb
p5870
(dp5871
g10
S'mono'
p5872
sg12
S'scavallare'
p5873
sba(iparrot.Element
Verb
p5874
(dp5875
g10
S'mono'
p5876
sg12
S'scazzare'
p5877
sba(iparrot.Element
Verb
p5878
(dp5879
g10
S'mono'
p5880
sg12
S'scemare'
p5881
sba(iparrot.Element
Verb
p5882
(dp5883
g10
S'mono'
p5884
sg12
S'scendere'
p5885
sba(iparrot.Element
Verb
p5886
(dp5887
g10
S'mono'
p5888
sg12
S'scherzare'
p5889
sba(iparrot.Element
Verb
p5890
(dp5891
g10
S'mono'
p5892
sg12
S'schiamazzare'
p5893
sba(iparrot.Element
Verb
p5894
(dp5895
g10
S'mono'
p5896
sg12
S'schiumare'
p5897
sba(iparrot.Element
Verb
p5898
(dp5899
g10
S'mono'
p5900
sg12
S'sciabolare'
p5901
sba(iparrot.Element
Verb
p5902
(dp5903
g10
S'mono'
p5904
sg12
S'scialare'
p5905
sba(iparrot.Element
Verb
p5906
(dp5907
g10
S'mono'
p5908
sg12
S'sciamare'
p5909
sba(iparrot.Element
Verb
p5910
(dp5911
g10
S'mono'
p5912
sg12
S'sciare'
p5913
sba(iparrot.Element
Verb
p5914
(dp5915
g10
S'mono'
p5916
sg12
S'scioperare'
p5917
sba(iparrot.Element
Verb
p5918
(dp5919
g10
S'mono'
p5920
sg12
S'scivolare'
p5921
sba(iparrot.Element
Verb
p5922
(dp5923
g10
S'mono'
p5924
sg12
S'sclerare'
p5925
sba(iparrot.Element
Verb
p5926
(dp5927
g10
S'mono'
p5928
sg12
S'scoccare'
p5929
sba(iparrot.Element
Verb
p5930
(dp5931
g10
S'mono'
p5932
sg12
S'scodinzolare'
p5933
sba(iparrot.Element
Verb
p5934
(dp5935
g10
S'mono'
p5936
sg12
S'scomparire'
p5937
sba(iparrot.Element
Verb
p5938
(dp5939
g10
S'mono'
p5940
sg12
S'scopare'
p5941
sba(iparrot.Element
Verb
p5942
(dp5943
g10
S'mono'
p5944
sg12
S'scoppiare'
p5945
sba(iparrot.Element
Verb
p5946
(dp5947
g10
S'mono'
p5948
sg12
S'scoreggiare'
p5949
sba(iparrot.Element
Verb
p5950
(dp5951
g10
S'mono'
p5952
sg12
S'scorrere'
p5953
sba(iparrot.Element
Verb
p5954
(dp5955
g10
S'mono'
p5956
sg12
S'scottare'
p5957
sba(iparrot.Element
Verb
p5958
(dp5959
g10
S'mono'
p5960
sg12
S'scricchiolare'
p5961
sba(iparrot.Element
Verb
p5962
(dp5963
g10
S'mono'
p5964
sg12
S'sculettare'
p5965
sba(iparrot.Element
Verb
p5966
(dp5967
g10
S'mono'
p5968
sg12
S'scurire'
p5969
sba(iparrot.Element
Verb
p5970
(dp5971
g10
S'mono'
p5972
sg12
S'sdrucire'
p5973
sba(iparrot.Element
Verb
p5974
(dp5975
g10
S'mono'
p5976
sg12
S'sedere'
p5977
sba(iparrot.Element
Verb
p5978
(dp5979
g10
S'mono'
p5980
sg12
S'seguitare'
p5981
sba(iparrot.Element
Verb
p5982
(dp5983
g10
S'mono'
p5984
sg12
S'sfagiolare'
p5985
sba(iparrot.Element
Verb
p5986
(dp5987
g10
S'mono'
p5988
sg12
S'sferragliare'
p5989
sba(iparrot.Element
Verb
p5990
(dp5991
g10
S'mono'
p5992
sg12
S'sfigurare'
p5993
sba(iparrot.Element
Verb
p5994
(dp5995
g10
S'mono'
p5996
sg12
S'sfogare'
p5997
sba(iparrot.Element
Verb
p5998
(dp5999
g10
S'mono'
p6000
sg12
S'sfollare'
p6001
sba(iparrot.Element
Verb
p6002
(dp6003
g10
S'mono'
p6004
sg12
S'sforbiciare'
p6005
sba(iparrot.Element
Verb
p6006
(dp6007
g10
S'mono'
p6008
sg12
S'sfuggire'
p6009
sba(iparrot.Element
Verb
p6010
(dp6011
g10
S'mono'
p6012
sg12
S'sgattaiolare'
p6013
sba(iparrot.Element
Verb
p6014
(dp6015
g10
S'mono'
p6016
sg12
S'singhiozzare'
p6017
sba(iparrot.Element
Verb
p6018
(dp6019
g10
S'mono'
p6020
sg12
S'smadonnare'
p6021
sba(iparrot.Element
Verb
p6022
(dp6023
g10
S'mono'
p6024
sg12
S'smagliare'
p6025
sba(iparrot.Element
Verb
p6026
(dp6027
g10
S'mono'
p6028
sg12
S'smagrare'
p6029
sba(iparrot.Element
Verb
p6030
(dp6031
g10
S'mono'
p6032
sg12
S'smagrire'
p6033
sba(iparrot.Element
Verb
p6034
(dp6035
g10
S'mono'
p6036
sg12
S'smanettare'
p6037
sba(iparrot.Element
Verb
p6038
(dp6039
g10
S'mono'
p6040
sg12
S'smaniare'
p6041
sba(iparrot.Element
Verb
p6042
(dp6043
g10
S'mono'
p6044
sg12
S'smaterializzare'
p6045
sba(iparrot.Element
Verb
p6046
(dp6047
g10
S'mono'
p6048
sg12
S'smiagolare'
p6049
sba(iparrot.Element
Verb
p6050
(dp6051
g10
S'mono'
p6052
sg12
S'sminuire'
p6053
sba(iparrot.Element
Verb
p6054
(dp6055
g10
S'mono'
p6056
sg12
S'sobbarcare'
p6057
sba(iparrot.Element
Verb
p6058
(dp6059
g10
S'mono'
p6060
sg12
S'soccombere'
p6061
sba(iparrot.Element
Verb
p6062
(dp6063
g10
S'mono'
p6064
sg12
S'soddisfare'
p6065
sba(iparrot.Element
Verb
p6066
(dp6067
g10
S'mono'
p6068
sg12
S'soffiare'
p6069
sba(iparrot.Element
Verb
p6070
(dp6071
g10
S'mono'
p6072
sg12
S'sogghignare'
p6073
sba(iparrot.Element
Verb
p6074
(dp6075
g10
S'mono'
p6076
sg12
S'soggiornare'
p6077
sba(iparrot.Element
Verb
p6078
(dp6079
g10
S'mono'
p6080
sg12
S'sognare'
p6081
sba(iparrot.Element
Verb
p6082
(dp6083
g10
S'mono'
p6084
sg12
S'sopravvivere'
p6085
sba(iparrot.Element
Verb
p6086
(dp6087
g10
S'mono'
p6088
sg12
S'sorgere'
p6089
sba(iparrot.Element
Verb
p6090
(dp6091
g10
S'mono'
p6092
sg12
S'sorridere'
p6093
sba(iparrot.Element
Verb
p6094
(dp6095
g10
S'mono'
p6096
sg12
S'sospettare'
p6097
sba(iparrot.Element
Verb
p6098
(dp6099
g10
S'mono'
p6100
sg12
S'sostare'
p6101
sba(iparrot.Element
Verb
p6102
(dp6103
g10
S'mono'
p6104
sg12
S'sovvenire'
p6105
sba(iparrot.Element
Verb
p6106
(dp6107
g10
S'mono'
p6108
sg12
S'spappagallare'
p6109
sba(iparrot.Element
Verb
p6110
(dp6111
g10
S'mono'
p6112
sg12
S'sparire'
p6113
sba(iparrot.Element
Verb
p6114
(dp6115
g10
S'mono'
p6116
sg12
S'spazientirsi'
p6117
sba(iparrot.Element
Verb
p6118
(dp6119
g10
S'mono'
p6120
sg12
S'speculare'
p6121
sba(iparrot.Element
Verb
p6122
(dp6123
g10
S'mono'
p6124
sg12
S'spergiurare'
p6125
sba(iparrot.Element
Verb
p6126
(dp6127
g10
S'mono'
p6128
sg12
S'spettare'
p6129
sba(iparrot.Element
Verb
p6130
(dp6131
g10
S'mono'
p6132
sg12
S'spettegolare'
p6133
sba(iparrot.Element
Verb
p6134
(dp6135
g10
S'mono'
p6136
sg12
S'spingere'
p6137
sba(iparrot.Element
Verb
p6138
(dp6139
g10
S'mono'
p6140
sg12
S'spirare'
p6141
sba(iparrot.Element
Verb
p6142
(dp6143
g10
S'mono'
p6144
sg12
S'splendere'
p6145
sba(iparrot.Element
Verb
p6146
(dp6147
g10
S'mono'
p6148
sg12
S'sporgere'
p6149
sba(iparrot.Element
Verb
p6150
(dp6151
g10
S'mono'
p6152
sg12
S'sprofondare'
p6153
sba(iparrot.Element
Verb
p6154
(dp6155
g10
S'mono'
p6156
sg12
S'sputare'
p6157
sba(iparrot.Element
Verb
p6158
(dp6159
g10
S'mono'
p6160
sg12
S'squittire'
p6161
sba(iparrot.Element
Verb
p6162
(dp6163
g10
S'mono'
p6164
sg12
S'staccare'
p6165
sba(iparrot.Element
Verb
p6166
(dp6167
g10
S'mono'
p6168
sg12
S'stare'
p6169
sba(iparrot.Element
Verb
p6170
(dp6171
g10
S'mono'
p6172
sg12
S'starnazzare'
p6173
sba(iparrot.Element
Verb
p6174
(dp6175
g10
S'mono'
p6176
sg12
S'starnutare'
p6177
sba(iparrot.Element
Verb
p6178
(dp6179
g10
S'mono'
p6180
sg12
S'starnutire'
p6181
sba(iparrot.Element
Verb
p6182
(dp6183
g10
S'mono'
p6184
sg12
S'steccare'
p6185
sba(iparrot.Element
Verb
p6186
(dp6187
g10
S'mono'
p6188
sg12
S'sterzare'
p6189
sba(iparrot.Element
Verb
p6190
(dp6191
g10
S'mono'
p6192
sg12
S'stolzare'
p6193
sba(iparrot.Element
Verb
p6194
(dp6195
g10
S'mono'
p6196
sg12
S'stornellare'
p6197
sba(iparrot.Element
Verb
p6198
(dp6199
g10
S'mono'
p6200
sg12
S'straorzare'
p6201
sba(iparrot.Element
Verb
p6202
(dp6203
g10
S'mono'
p6204
sg12
S'straripare'
p6205
sba(iparrot.Element
Verb
p6206
(dp6207
g10
S'mono'
p6208
sg12
S'strisciare'
p6209
sba(iparrot.Element
Verb
p6210
(dp6211
g10
S'mono'
p6212
sg12
S'stronfiare'
p6213
sba(iparrot.Element
Verb
p6214
(dp6215
g10
S'mono'
p6216
sg12
S'subentrare'
p6217
sba(iparrot.Element
Verb
p6218
(dp6219
g10
S'mono'
p6220
sg12
S'subissare'
p6221
sba(iparrot.Element
Verb
p6222
(dp6223
g10
S'mono'
p6224
sg12
S'succedere'
p6225
sba(iparrot.Element
Verb
p6226
(dp6227
g10
S'mono'
p6228
sg12
S'sudare'
p6229
sba(iparrot.Element
Verb
p6230
(dp6231
g10
S'mono'
p6232
sg12
S'suonare'
p6233
sba(iparrot.Element
Verb
p6234
(dp6235
g10
S'mono'
p6236
sg12
S'supplire'
p6237
sba(iparrot.Element
Verb
p6238
(dp6239
g10
S'mono'
p6240
sg12
S'sussultare'
p6241
sba(iparrot.Element
Verb
p6242
(dp6243
g10
S'mono'
p6244
sg12
S'sussurrare'
p6245
sba(iparrot.Element
Verb
p6246
(dp6247
g10
S'mono'
p6248
sg12
S'svanire'
p6249
sba(iparrot.Element
Verb
p6250
(dp6251
g10
S'mono'
p6252
sg12
S'svapare'
p6253
sba(iparrot.Element
Verb
p6254
(dp6255
g10
S'mono'
p6256
sg12
S'svariare'
p6257
sba(iparrot.Element
Verb
p6258
(dp6259
g10
S'mono'
p6260
sg12
S'svenire'
p6261
sba(iparrot.Element
Verb
p6262
(dp6263
g10
S'mono'
p6264
sg12
S'svernare'
p6265
sba(iparrot.Element
Verb
p6266
(dp6267
g10
S'mono'
p6268
sg12
S'tacere'
p6269
sba(iparrot.Element
Verb
p6270
(dp6271
g10
S'mono'
p6272
sg12
S'taciteggiare'
p6273
sba(iparrot.Element
Verb
p6274
(dp6275
g10
S'mono'
p6276
sg12
S'tamburellare'
p6277
sba(iparrot.Element
Verb
p6278
(dp6279
g10
S'mono'
p6280
sg12
S'tardare'
p6281
sba(iparrot.Element
Verb
p6282
(dp6283
g10
S'mono'
p6284
sg12
S'taroccare'
p6285
sba(iparrot.Element
Verb
p6286
(dp6287
g10
S'mono'
p6288
sg12
S'telare'
p6289
sba(iparrot.Element
Verb
p6290
(dp6291
g10
S'mono'
p6292
sg12
S'telefonare'
p6293
sba(iparrot.Element
Verb
p6294
(dp6295
g10
S'mono'
p6296
sg12
S'telegrafare'
p6297
sba(iparrot.Element
Verb
p6298
(dp6299
g10
S'mono'
p6300
sg12
S'temere'
p6301
sba(iparrot.Element
Verb
p6302
(dp6303
g10
S'mono'
p6304
sg12
S'tendere'
p6305
sba(iparrot.Element
Verb
p6306
(dp6307
g10
S'mono'
p6308
sg12
S'tergiversare'
p6309
sba(iparrot.Element
Verb
p6310
(dp6311
g10
S'mono'
p6312
sg12
S'terminare'
p6313
sba(iparrot.Element
Verb
p6314
(dp6315
g10
S'mono'
p6316
sg12
S'tesaurizzare'
p6317
sba(iparrot.Element
Verb
p6318
(dp6319
g10
S'mono'
p6320
sg12
S'tessere'
p6321
sba(iparrot.Element
Verb
p6322
(dp6323
g10
S'mono'
p6324
sg12
S'testare'
p6325
sba(iparrot.Element
Verb
p6326
(dp6327
g10
S'mono'
p6328
sg12
S'torcere'
p6329
sba(iparrot.Element
Verb
p6330
(dp6331
g10
S'mono'
p6332
sg12
S'tornare'
p6333
sba(iparrot.Element
Verb
p6334
(dp6335
g10
S'mono'
p6336
sg12
S'tossire'
p6337
sba(iparrot.Element
Verb
p6338
(dp6339
g10
S'mono'
p6340
sg12
S'traballare'
p6341
sba(iparrot.Element
Verb
p6342
(dp6343
g10
S'mono'
p6344
sg12
S'traccheggiare'
p6345
sba(iparrot.Element
Verb
p6346
(dp6347
g10
S'mono'
p6348
sg12
S'tradurre'
p6349
sba(iparrot.Element
Verb
p6350
(dp6351
g10
S'mono'
p6352
sg12
S'tramontare'
p6353
sba(iparrot.Element
Verb
p6354
(dp6355
g10
S'mono'
p6356
sg12
S'tramortire'
p6357
sba(iparrot.Element
Verb
p6358
(dp6359
g10
S'mono'
p6360
sg12
S'transitare'
p6361
sba(iparrot.Element
Verb
p6362
(dp6363
g10
S'mono'
p6364
sg12
S'trapassare'
p6365
sba(iparrot.Element
Verb
p6366
(dp6367
g10
S'mono'
p6368
sg12
S'trapelare'
p6369
sba(iparrot.Element
Verb
p6370
(dp6371
g10
S'mono'
p6372
sg12
S'trasalire'
p6373
sba(iparrot.Element
Verb
p6374
(dp6375
g10
S'mono'
p6376
sg12
S'trascendere'
p6377
sba(iparrot.Element
Verb
p6378
(dp6379
g10
S'mono'
p6380
sg12
S'trascorrere'
p6381
sba(iparrot.Element
Verb
p6382
(dp6383
g10
S'mono'
p6384
sg12
S'trasecolare'
p6385
sba(iparrot.Element
Verb
p6386
(dp6387
g10
S'mono'
p6388
sg12
S'trasgredire'
p6389
sba(iparrot.Element
Verb
p6390
(dp6391
g10
S'mono'
p6392
sg12
S'traslare'
p6393
sba(iparrot.Element
Verb
p6394
(dp6395
g10
S'mono'
p6396
sg12
S'traslocare'
p6397
sba(iparrot.Element
Verb
p6398
(dp6399
g10
S'mono'
p6400
sg12
S'trasognare'
p6401
sba(iparrot.Element
Verb
p6402
(dp6403
g10
S'mono'
p6404
sg12
S'travagliare'
p6405
sba(iparrot.Element
Verb
p6406
(dp6407
g10
S'mono'
p6408
sg12
S'travalicare'
p6409
sba(iparrot.Element
Verb
p6410
(dp6411
g10
S'mono'
p6412
sg12
S'travarcare'
p6413
sba(iparrot.Element
Verb
p6414
(dp6415
g10
S'mono'
p6416
sg12
S'tremare'
p6417
sba(iparrot.Element
Verb
p6418
(dp6419
g10
S'mono'
p6420
sg12
S'tremolare'
p6421
sba(iparrot.Element
Verb
p6422
(dp6423
g10
S'mono'
p6424
sg12
S'trepidare'
p6425
sba(iparrot.Element
Verb
p6426
(dp6427
g10
S'mono'
p6428
sg12
S'trillare'
p6429
sba(iparrot.Element
Verb
p6430
(dp6431
g10
S'mono'
p6432
sg12
S'trottolare'
p6433
sba(iparrot.Element
Verb
p6434
(dp6435
g10
S'mono'
p6436
sg12
S'trovarsi'
p6437
sba(iparrot.Element
Verb
p6438
(dp6439
g10
S'mono'
p6440
sg12
S'turbinare'
p6441
sba(iparrot.Element
Verb
p6442
(dp6443
g10
S'mono'
p6444
sg12
S'ululare'
p6445
sba(iparrot.Element
Verb
p6446
(dp6447
g10
S'mono'
p6448
sg12
S'urgere'
p6449
sba(iparrot.Element
Verb
p6450
(dp6451
g10
S'mono'
p6452
sg12
S'urtare'
p6453
sba(iparrot.Element
Verb
p6454
(dp6455
g10
S'mono'
p6456
sg12
S'uscire'
p6457
sba(iparrot.Element
Verb
p6458
(dp6459
g10
S'mono'
p6460
sg12
S'usufruire'
p6461
sba(iparrot.Element
Verb
p6462
(dp6463
g10
S'mono'
p6464
sg12
S'vacillare'
p6465
sba(iparrot.Element
Verb
p6466
(dp6467
g10
S'mono'
p6468
sg12
S'vagabondare'
p6469
sba(iparrot.Element
Verb
p6470
(dp6471
g10
S'mono'
p6472
sg12
S'vagare'
p6473
sba(iparrot.Element
Verb
p6474
(dp6475
g10
S'mono'
p6476
sg12
S'vaglielo'
p6477
sba(iparrot.Element
Verb
p6478
(dp6479
g10
S'mono'
p6480
sg12
S'valere'
p6481
sba(iparrot.Element
Verb
p6482
(dp6483
g10
S'mono'
p6484
sg12
S'varare'
p6485
sba(iparrot.Element
Verb
p6486
(dp6487
g10
S'mono'
p6488
sg12
S'venire'
p6489
sba(iparrot.Element
Verb
p6490
(dp6491
g10
S'mono'
p6492
sg12
S'venire su'
p6493
sba(iparrot.Element
Verb
p6494
(dp6495
g10
S'mono'
p6496
sg12
S'vestire'
p6497
sba(iparrot.Element
Verb
p6498
(dp6499
g10
S'mono'
p6500
sg12
S'viaggiare'
p6501
sba(iparrot.Element
Verb
p6502
(dp6503
g10
S'mono'
p6504
sg12
S'vibrare'
p6505
sba(iparrot.Element
Verb
p6506
(dp6507
g10
S'mono'
p6508
sg12
S'vivere'
p6509
sba(iparrot.Element
Verb
p6510
(dp6511
g10
S'mono'
p6512
sg12
S'vociare'
p6513
sba(iparrot.Element
Verb
p6514
(dp6515
g10
S'mono'
p6516
sg12
S'vogare'
p6517
sba(iparrot.Element
Verb
p6518
(dp6519
g10
S'mono'
p6520
sg12
S'volgere'
p6521
sba(iparrot.Element
Verb
p6522
(dp6523
g10
S'mono'
p6524
sg12
S'vomere'
p6525
sba(iparrot.Element
Verb
p6526
(dp6527
g10
S'mono'
p6528
sg12
S'zampillare'
p6529
sba(iparrot.Element
Verb
p6530
(dp6531
g10
S'mono'
p6532
sg12
S'zigzagare'
p6533
sba(iparrot.Element
Verb
p6534
(dp6535
g10
S'mono'
p6536
sg12
S'zirlare'
p6537
sba(iparrot.Element
Verb
p6538
(dp6539
g10
S'mono'
p6540
sg12
S'zittire'
p6541
sba(iparrot.Element
Verb
p6542
(dp6543
g10
S'mono'
p6544
sg12
S'zoccolare'
p6545
sba(iparrot.Element
Verb
p6546
(dp6547
g10
S'mono'
p6548
sg12
S'zoppicare'
p6549
sba(iparrot.Element
Verb
p6550
(dp6551
g10
S'mono'
p6552
sg12
S'zufolare'
p6553
sbasb.